;******************************************************************************
;* TI ARM C/C++ Codegen                                             PC v5.1.6 *
;* Date/Time created: Wed Feb 10 23:08:40 2016                                *
;******************************************************************************
	.compiler_opts --abi=eabi --arm_vmrs_si_workaround=on --code_state=16 --diag_wrap=off --disable_dual_state --embedded_constants=on --endian=little --float_support=FPv4SPD16 --hll_source=on --object_format=elf --silicon_version=7M4 --symdebug:dwarf --symdebug:dwarf_version=3 --unaligned_access=on 
	.thumb

$C$DW$CU	.dwtag  DW_TAG_compile_unit
	.dwattr $C$DW$CU, DW_AT_name("../uartp/cmdline.c")
	.dwattr $C$DW$CU, DW_AT_producer("TI TI ARM C/C++ Codegen PC v5.1.6 Copyright (c) 1996-2014 Texas Instruments Incorporated")
	.dwattr $C$DW$CU, DW_AT_TI_version(0x01)
	.dwattr $C$DW$CU, DW_AT_comp_dir("C:\ti6\workspace\tiva-pid\Debug")

$C$DW$1	.dwtag  DW_TAG_subprogram, DW_AT_name("strcmp")
	.dwattr $C$DW$1, DW_AT_TI_symbol_name("strcmp")
	.dwattr $C$DW$1, DW_AT_type(*$C$DW$T$10)
	.dwattr $C$DW$1, DW_AT_declaration
	.dwattr $C$DW$1, DW_AT_external
	.dwattr $C$DW$1, DW_AT_decl_file("C:/ti6/ccsv6/tools/compiler/arm_5.1.6/include/string.h")
	.dwattr $C$DW$1, DW_AT_decl_line(0x4f)
	.dwattr $C$DW$1, DW_AT_decl_column(0x11)
$C$DW$2	.dwtag  DW_TAG_formal_parameter
	.dwattr $C$DW$2, DW_AT_type(*$C$DW$T$21)
$C$DW$3	.dwtag  DW_TAG_formal_parameter
	.dwattr $C$DW$3, DW_AT_type(*$C$DW$T$21)
	.dwendtag $C$DW$1

$C$DW$4	.dwtag  DW_TAG_variable, DW_AT_name("g_psCmdTable")
	.dwattr $C$DW$4, DW_AT_TI_symbol_name("g_psCmdTable")
	.dwattr $C$DW$4, DW_AT_type(*$C$DW$T$30)
	.dwattr $C$DW$4, DW_AT_declaration
	.dwattr $C$DW$4, DW_AT_external
	.dwattr $C$DW$4, DW_AT_decl_file("C:/ti6/TivaWare_C_Series-2.1.0.12573/utils/cmdline.h")
	.dwattr $C$DW$4, DW_AT_decl_line(0x70)
	.dwattr $C$DW$4, DW_AT_decl_column(0x16)
g_ppcArgv:	.usect	".bss:g_ppcArgv",36,4
$C$DW$5	.dwtag  DW_TAG_variable, DW_AT_name("g_ppcArgv")
	.dwattr $C$DW$5, DW_AT_TI_symbol_name("g_ppcArgv")
	.dwattr $C$DW$5, DW_AT_type(*$C$DW$T$73)
	.dwattr $C$DW$5, DW_AT_location[DW_OP_addr g_ppcArgv]
	.dwattr $C$DW$5, DW_AT_decl_file("../uartp/cmdline.c")
	.dwattr $C$DW$5, DW_AT_decl_line(0x33)
	.dwattr $C$DW$5, DW_AT_decl_column(0x0e)
;	C:\ti6\ccsv6\tools\compiler\arm_5.1.6\bin\armacpia.exe -@C:\\Users\\massimo\\AppData\\Local\\Temp\\1494412 
	.sect	".text"
	.clink
	.thumbfunc CmdLineProcess
	.thumb
	.global	CmdLineProcess

$C$DW$6	.dwtag  DW_TAG_subprogram, DW_AT_name("CmdLineProcess")
	.dwattr $C$DW$6, DW_AT_low_pc(CmdLineProcess)
	.dwattr $C$DW$6, DW_AT_high_pc(0x00)
	.dwattr $C$DW$6, DW_AT_TI_symbol_name("CmdLineProcess")
	.dwattr $C$DW$6, DW_AT_external
	.dwattr $C$DW$6, DW_AT_type(*$C$DW$T$10)
	.dwattr $C$DW$6, DW_AT_TI_begin_file("../uartp/cmdline.c")
	.dwattr $C$DW$6, DW_AT_TI_begin_line(0x4d)
	.dwattr $C$DW$6, DW_AT_TI_begin_column(0x01)
	.dwattr $C$DW$6, DW_AT_decl_file("../uartp/cmdline.c")
	.dwattr $C$DW$6, DW_AT_decl_line(0x4d)
	.dwattr $C$DW$6, DW_AT_decl_column(0x01)
	.dwattr $C$DW$6, DW_AT_TI_max_frame_size(0x18)
	.dwpsn	file "../uartp/cmdline.c",line 78,column 1,is_stmt,address CmdLineProcess,isa 1

	.dwfde $C$DW$CIE, CmdLineProcess
$C$DW$7	.dwtag  DW_TAG_formal_parameter, DW_AT_name("pcCmdLine")
	.dwattr $C$DW$7, DW_AT_TI_symbol_name("pcCmdLine")
	.dwattr $C$DW$7, DW_AT_type(*$C$DW$T$22)
	.dwattr $C$DW$7, DW_AT_location[DW_OP_reg0]
;----------------------------------------------------------------------
;  77 | CmdLineProcess(char *pcCmdLine)                                        
;----------------------------------------------------------------------

;*****************************************************************************
;* FUNCTION NAME: CmdLineProcess                                             *
;*                                                                           *
;*   Regs Modified     : A1,A2,A3,A4,V9,SP,LR,SR,D0,D0_hi,D1,D1_hi,D2,D2_hi, *
;*                           D3,D3_hi,D4,D4_hi,D5,D5_hi,D6,D6_hi,D7,D7_hi,   *
;*                           FPEXC,FPSCR                                     *
;*   Regs Used         : A1,A2,A3,A4,V9,SP,LR,SR,D0,D0_hi,D1,D1_hi,D2,D2_hi, *
;*                           D3,D3_hi,D4,D4_hi,D5,D5_hi,D6,D6_hi,D7,D7_hi,   *
;*                           FPEXC,FPSCR                                     *
;*   Local Frame Size  : 0 Args + 20 Auto + 4 Save = 24 byte                 *
;*****************************************************************************
CmdLineProcess:
;* --------------------------------------------------------------------------*
	.dwcfi	cfa_offset, 0
        PUSH      {LR}                  ; [DPU_3_PIPE] 
	.dwcfi	cfa_offset, 4
	.dwcfi	save_reg_to_mem, 14, -4
        SUB       SP, SP, #20           ; [DPU_3_PIPE] 
	.dwcfi	cfa_offset, 24
$C$DW$8	.dwtag  DW_TAG_variable, DW_AT_name("pcCmdLine")
	.dwattr $C$DW$8, DW_AT_TI_symbol_name("pcCmdLine")
	.dwattr $C$DW$8, DW_AT_type(*$C$DW$T$22)
	.dwattr $C$DW$8, DW_AT_location[DW_OP_breg13 0]
$C$DW$9	.dwtag  DW_TAG_variable, DW_AT_name("pcChar")
	.dwattr $C$DW$9, DW_AT_TI_symbol_name("pcChar")
	.dwattr $C$DW$9, DW_AT_type(*$C$DW$T$22)
	.dwattr $C$DW$9, DW_AT_location[DW_OP_breg13 4]
$C$DW$10	.dwtag  DW_TAG_variable, DW_AT_name("ui8Argc")
	.dwattr $C$DW$10, DW_AT_TI_symbol_name("ui8Argc")
	.dwattr $C$DW$10, DW_AT_type(*$C$DW$T$57)
	.dwattr $C$DW$10, DW_AT_location[DW_OP_breg13 8]
$C$DW$11	.dwtag  DW_TAG_variable, DW_AT_name("bFindArg")
	.dwattr $C$DW$11, DW_AT_TI_symbol_name("bFindArg")
	.dwattr $C$DW$11, DW_AT_type(*$C$DW$T$75)
	.dwattr $C$DW$11, DW_AT_location[DW_OP_breg13 12]
$C$DW$12	.dwtag  DW_TAG_variable, DW_AT_name("psCmdEntry")
	.dwattr $C$DW$12, DW_AT_TI_symbol_name("psCmdEntry")
	.dwattr $C$DW$12, DW_AT_type(*$C$DW$T$31)
	.dwattr $C$DW$12, DW_AT_location[DW_OP_breg13 16]
;----------------------------------------------------------------------
;  79 | char *pcChar;                                                          
;  80 | uint_fast8_t ui8Argc;                                                  
;----------------------------------------------------------------------
        STR       A1, [SP, #0]          ; [DPU_3_PIPE] |78| 
	.dwpsn	file "../uartp/cmdline.c",line 81,column 19,is_stmt,isa 1
;----------------------------------------------------------------------
;  81 | bool bFindArg = true;                                                  
;  82 | tCmdLineEntry *psCmdEntry;                                             
;  84 | //                                                                     
;  85 | // Initialize the argument counter, and point to the beginning of the  
;  86 | // command line string.                                                
;  87 | //                                                                     
;----------------------------------------------------------------------
        MOVS      A1, #1                ; [DPU_3_PIPE] |81| 
        STRB      A1, [SP, #12]         ; [DPU_3_PIPE] |81| 
	.dwpsn	file "../uartp/cmdline.c",line 88,column 5,is_stmt,isa 1
;----------------------------------------------------------------------
;  88 | ui8Argc = 0;                                                           
;----------------------------------------------------------------------
        MOVS      A1, #0                ; [DPU_3_PIPE] |88| 
        STR       A1, [SP, #8]          ; [DPU_3_PIPE] |88| 
	.dwpsn	file "../uartp/cmdline.c",line 89,column 5,is_stmt,isa 1
;----------------------------------------------------------------------
;  89 | pcChar = pcCmdLine;                                                    
;  91 | //                                                                     
;  92 | // Advance through the command line until a zero character is found.   
;  93 | //                                                                     
;----------------------------------------------------------------------
        LDR       A1, [SP, #0]          ; [DPU_3_PIPE] |89| 
        STR       A1, [SP, #4]          ; [DPU_3_PIPE] |89| 
	.dwpsn	file "../uartp/cmdline.c",line 94,column 5,is_stmt,isa 1
;----------------------------------------------------------------------
;  94 | while(*pcChar)                                                         
;  96 |     //                                                                 
;  97 |     // If there is a space, then replace it with a zero, and set the fl
;     | ag                                                                     
;  98 |     // to search for the next argument.                                
;  99 |     //                                                                 
;----------------------------------------------------------------------
        B         ||$C$L5||             ; [DPU_3_PIPE] |94| 
        ; BRANCH OCCURS {||$C$L5||}      ; [] |94| 
;* --------------------------------------------------------------------------*
||$C$L1||:    
	.dwpsn	file "../uartp/cmdline.c",line 100,column 9,is_stmt,isa 1
;----------------------------------------------------------------------
; 100 | if(*pcChar == ' ')                                                     
;----------------------------------------------------------------------
        LDR       A1, [SP, #4]          ; [DPU_3_PIPE] |100| 
        LDRB      A1, [A1, #0]          ; [DPU_3_PIPE] |100| 
        CMP       A1, #32               ; [DPU_3_PIPE] |100| 
        BNE       ||$C$L2||             ; [DPU_3_PIPE] |100| 
        ; BRANCHCC OCCURS {||$C$L2||}    ; [] |100| 
;* --------------------------------------------------------------------------*
	.dwpsn	file "../uartp/cmdline.c",line 102,column 13,is_stmt,isa 1
;----------------------------------------------------------------------
; 102 | *pcChar = 0;                                                           
;----------------------------------------------------------------------
        LDR       A1, [SP, #4]          ; [DPU_3_PIPE] |102| 
        MOVS      A2, #0                ; [DPU_3_PIPE] |102| 
        STRB      A2, [A1, #0]          ; [DPU_3_PIPE] |102| 
	.dwpsn	file "../uartp/cmdline.c",line 103,column 13,is_stmt,isa 1
;----------------------------------------------------------------------
; 103 | bFindArg = true;                                                       
;----------------------------------------------------------------------
        MOVS      A1, #1                ; [DPU_3_PIPE] |103| 
        STRB      A1, [SP, #12]         ; [DPU_3_PIPE] |103| 
	.dwpsn	file "../uartp/cmdline.c",line 104,column 9,is_stmt,isa 1
;----------------------------------------------------------------------
; 106 | //                                                                     
; 107 | // Otherwise it is not a space, so it must be a character that is part 
; 108 | // of an argument.                                                     
; 109 | //                                                                     
; 110 | else                                                                   
; 112 |     //                                                                 
; 113 |     // If bFindArg is set, then that means we are looking for the start
; 114 |     // of the next argument.                                           
; 115 |     //                                                                 
;----------------------------------------------------------------------
        B         ||$C$L4||             ; [DPU_3_PIPE] |104| 
        ; BRANCH OCCURS {||$C$L4||}      ; [] |104| 
;* --------------------------------------------------------------------------*
||$C$L2||:    
	.dwpsn	file "../uartp/cmdline.c",line 116,column 13,is_stmt,isa 1
;----------------------------------------------------------------------
; 116 | if(bFindArg)                                                           
; 118 |     //                                                                 
; 119 |     // As long as the maximum number of arguments has not been         
; 120 |     // reached, then save the pointer to the start of this new arg     
; 121 |     // in the argv array, and increment the count of args, argc.       
; 122 |     //                                                                 
;----------------------------------------------------------------------
        LDRB      A1, [SP, #12]         ; [DPU_3_PIPE] |116| 
        CBZ       A1, ||$C$L4||         ; [] 
        ; BRANCHCC OCCURS {||$C$L4||}    ; [] |116| 
;* --------------------------------------------------------------------------*
	.dwpsn	file "../uartp/cmdline.c",line 123,column 17,is_stmt,isa 1
;----------------------------------------------------------------------
; 123 | if(ui8Argc < CMDLINE_MAX_ARGS)                                         
;----------------------------------------------------------------------
        LDR       A1, [SP, #8]          ; [DPU_3_PIPE] |123| 
        CMP       A1, #8                ; [DPU_3_PIPE] |123| 
        BCS       ||$C$L3||             ; [DPU_3_PIPE] |123| 
        ; BRANCHCC OCCURS {||$C$L3||}    ; [] |123| 
;* --------------------------------------------------------------------------*
	.dwpsn	file "../uartp/cmdline.c",line 125,column 21,is_stmt,isa 1
;----------------------------------------------------------------------
; 125 | g_ppcArgv[ui8Argc] = pcChar;                                           
;----------------------------------------------------------------------
        LDR       A2, [SP, #8]          ; [DPU_3_PIPE] |125| 
        LDR       A3, $C$CON1           ; [DPU_3_PIPE] |125| 
        LDR       A1, [SP, #4]          ; [DPU_3_PIPE] |125| 
        STR       A1, [A3, +A2, LSL #2] ; [DPU_3_PIPE] |125| 
	.dwpsn	file "../uartp/cmdline.c",line 126,column 21,is_stmt,isa 1
;----------------------------------------------------------------------
; 126 | ui8Argc++;                                                             
;----------------------------------------------------------------------
        LDR       A1, [SP, #8]          ; [DPU_3_PIPE] |126| 
        ADDS      A1, A1, #1            ; [DPU_3_PIPE] |126| 
        STR       A1, [SP, #8]          ; [DPU_3_PIPE] |126| 
	.dwpsn	file "../uartp/cmdline.c",line 127,column 21,is_stmt,isa 1
;----------------------------------------------------------------------
; 127 | bFindArg = false;                                                      
;----------------------------------------------------------------------
        MOVS      A1, #0                ; [DPU_3_PIPE] |127| 
        STRB      A1, [SP, #12]         ; [DPU_3_PIPE] |127| 
	.dwpsn	file "../uartp/cmdline.c",line 128,column 17,is_stmt,isa 1
;----------------------------------------------------------------------
; 130 | //                                                                     
; 131 | // The maximum number of arguments has been reached so return          
; 132 | // the error.                                                          
; 133 | //                                                                     
; 134 | else                                                                   
;----------------------------------------------------------------------
        B         ||$C$L4||             ; [DPU_3_PIPE] |128| 
        ; BRANCH OCCURS {||$C$L4||}      ; [] |128| 
;* --------------------------------------------------------------------------*
||$C$L3||:    
	.dwpsn	file "../uartp/cmdline.c",line 136,column 21,is_stmt,isa 1
;----------------------------------------------------------------------
; 136 | return(CMDLINE_TOO_MANY_ARGS);                                         
; 141 | //                                                                     
; 142 | // Advance to the next character in the command line.                  
; 143 | //                                                                     
;----------------------------------------------------------------------
        MVN       A1, #1                ; [DPU_3_PIPE] |136| 
        B         ||$C$L10||            ; [DPU_3_PIPE] |136| 
        ; BRANCH OCCURS {||$C$L10||}     ; [] |136| 
;* --------------------------------------------------------------------------*
||$C$L4||:    
	.dwpsn	file "../uartp/cmdline.c",line 144,column 9,is_stmt,isa 1
;----------------------------------------------------------------------
; 144 | pcChar++;                                                              
; 147 | //                                                                     
; 148 | // If one or more arguments was found, then process the command.       
; 149 | //                                                                     
;----------------------------------------------------------------------
        LDR       A1, [SP, #4]          ; [DPU_3_PIPE] |144| 
        ADDS      A1, A1, #1            ; [DPU_3_PIPE] |144| 
        STR       A1, [SP, #4]          ; [DPU_3_PIPE] |144| 
;* --------------------------------------------------------------------------*
;*   BEGIN LOOP ||$C$L5||
;* --------------------------------------------------------------------------*
||$C$L5||:    
	.dwpsn	file "../uartp/cmdline.c",line 94,column 5,is_stmt,isa 1
        LDR       A1, [SP, #4]          ; [DPU_3_PIPE] |94| 
        LDRB      A1, [A1, #0]          ; [DPU_3_PIPE] |94| 
        CMP       A1, #0                ; [DPU_3_PIPE] |94| 
        BNE       ||$C$L1||             ; [DPU_3_PIPE] |94| 
        ; BRANCHCC OCCURS {||$C$L1||}    ; [] |94| 
;* --------------------------------------------------------------------------*
	.dwpsn	file "../uartp/cmdline.c",line 150,column 5,is_stmt,isa 1
;----------------------------------------------------------------------
; 150 | if(ui8Argc)                                                            
; 152 |     //                                                                 
; 153 |     // Start at the beginning of the command table, to look for a match
;     | ing                                                                    
; 154 |     // command.                                                        
; 155 |     //                                                                 
;----------------------------------------------------------------------
        LDR       A1, [SP, #8]          ; [DPU_3_PIPE] |150| 
        CBZ       A1, ||$C$L9||         ; [] 
        ; BRANCHCC OCCURS {||$C$L9||}    ; [] |150| 
;* --------------------------------------------------------------------------*
	.dwpsn	file "../uartp/cmdline.c",line 156,column 9,is_stmt,isa 1
;----------------------------------------------------------------------
; 156 | psCmdEntry = &g_psCmdTable[0];                                         
; 158 | //                                                                     
; 159 | // Search through the command table until a null command string is     
; 160 | // found, which marks the end of the table.                            
; 161 | //                                                                     
;----------------------------------------------------------------------
        LDR       A1, $C$CON2           ; [DPU_3_PIPE] |156| 
        STR       A1, [SP, #16]         ; [DPU_3_PIPE] |156| 
	.dwpsn	file "../uartp/cmdline.c",line 162,column 9,is_stmt,isa 1
;----------------------------------------------------------------------
; 162 | while(psCmdEntry->pcCmd)                                               
; 164 |     //                                                                 
; 165 |     // If this command entry command string matches argv[0], then call 
; 166 |     // the function for this command, passing the command line         
; 167 |     // arguments.                                                      
; 168 |     //                                                                 
;----------------------------------------------------------------------
        B         ||$C$L8||             ; [DPU_3_PIPE] |162| 
        ; BRANCH OCCURS {||$C$L8||}      ; [] |162| 
;* --------------------------------------------------------------------------*
||$C$L6||:    
	.dwpsn	file "../uartp/cmdline.c",line 169,column 13,is_stmt,isa 1
;----------------------------------------------------------------------
; 169 | if(!strcmp(g_ppcArgv[0], psCmdEntry->pcCmd))                           
;----------------------------------------------------------------------
        LDR       A1, $C$CON1           ; [DPU_3_PIPE] |169| 
        LDR       A2, [SP, #16]         ; [DPU_3_PIPE] |169| 
        LDR       A1, [A1, #0]          ; [DPU_3_PIPE] |169| 
        LDR       A2, [A2, #0]          ; [DPU_3_PIPE] |169| 
$C$DW$13	.dwtag  DW_TAG_TI_branch
	.dwattr $C$DW$13, DW_AT_low_pc(0x00)
	.dwattr $C$DW$13, DW_AT_name("strcmp")
	.dwattr $C$DW$13, DW_AT_TI_call
        BL        strcmp                ; [DPU_3_PIPE] |169| 
        ; CALL OCCURS {strcmp }          ; [] |169| 
        CBNZ      A1, ||$C$L7||         ; [] 
        ; BRANCHCC OCCURS {||$C$L7||}    ; [] |169| 
;* --------------------------------------------------------------------------*
	.dwpsn	file "../uartp/cmdline.c",line 171,column 17,is_stmt,isa 1
;----------------------------------------------------------------------
; 171 | return(psCmdEntry->pfnCmd(ui8Argc, g_ppcArgv));                        
; 174 | //                                                                     
; 175 | // Not found, so advance to the next entry.                            
; 176 | //                                                                     
;----------------------------------------------------------------------
        LDR       A1, [SP, #16]         ; [DPU_3_PIPE] |171| 
        LDR       A2, [A1, #4]          ; [DPU_3_PIPE] |171| 
        LDR       A1, [SP, #8]          ; [DPU_3_PIPE] |171| 
        MOV       A3, A2                ; [DPU_3_PIPE] |171| 
        LDR       A2, $C$CON1           ; [DPU_3_PIPE] |171| 
$C$DW$14	.dwtag  DW_TAG_TI_branch
	.dwattr $C$DW$14, DW_AT_low_pc(0x00)
	.dwattr $C$DW$14, DW_AT_TI_call
	.dwattr $C$DW$14, DW_AT_TI_indirect
        BLX       A3                    ; [DPU_3_PIPE] |171| 
        ; CALL OCCURS {}                 ; [] |171| 
        B         ||$C$L10||            ; [DPU_3_PIPE] |171| 
        ; BRANCH OCCURS {||$C$L10||}     ; [] |171| 
;* --------------------------------------------------------------------------*
||$C$L7||:    
	.dwpsn	file "../uartp/cmdline.c",line 177,column 13,is_stmt,isa 1
;----------------------------------------------------------------------
; 177 | psCmdEntry++;                                                          
; 181 | //                                                                     
; 182 | // Fall through to here means that no matching command was found, so re
;     | turn                                                                   
; 183 | // an error.                                                           
; 184 | //                                                                     
;----------------------------------------------------------------------
        LDR       A1, [SP, #16]         ; [DPU_3_PIPE] |177| 
        ADDS      A1, A1, #12           ; [DPU_3_PIPE] |177| 
        STR       A1, [SP, #16]         ; [DPU_3_PIPE] |177| 
;* --------------------------------------------------------------------------*
;*   BEGIN LOOP ||$C$L8||
;* --------------------------------------------------------------------------*
||$C$L8||:    
	.dwpsn	file "../uartp/cmdline.c",line 162,column 9,is_stmt,isa 1
        LDR       A1, [SP, #16]         ; [DPU_3_PIPE] |162| 
        LDR       A1, [A1, #0]          ; [DPU_3_PIPE] |162| 
        CMP       A1, #0                ; [DPU_3_PIPE] |162| 
        BNE       ||$C$L6||             ; [DPU_3_PIPE] |162| 
        ; BRANCHCC OCCURS {||$C$L6||}    ; [] |162| 
;* --------------------------------------------------------------------------*
||$C$L9||:    
	.dwpsn	file "../uartp/cmdline.c",line 185,column 5,is_stmt,isa 1
;----------------------------------------------------------------------
; 185 | return(CMDLINE_BAD_CMD);                                               
;----------------------------------------------------------------------
        MOV       A1, #-1               ; [DPU_3_PIPE] |185| 
;* --------------------------------------------------------------------------*
||$C$L10||:    
	.dwpsn	file "../uartp/cmdline.c",line 186,column 1,is_stmt,isa 1
        ADD       SP, SP, #20           ; [DPU_3_PIPE] 
	.dwcfi	cfa_offset, 4
$C$DW$15	.dwtag  DW_TAG_TI_branch
	.dwattr $C$DW$15, DW_AT_low_pc(0x00)
	.dwattr $C$DW$15, DW_AT_TI_return
        POP       {PC}                  ; [DPU_3_PIPE] 
	.dwcfi	cfa_offset, 0
        ; BRANCH OCCURS                  ; [] 
	.dwattr $C$DW$6, DW_AT_TI_end_file("../uartp/cmdline.c")
	.dwattr $C$DW$6, DW_AT_TI_end_line(0xba)
	.dwattr $C$DW$6, DW_AT_TI_end_column(0x01)
	.dwendentry
	.dwendtag $C$DW$6

;******************************************************************************
;* CONSTANT TABLE                                                             *
;******************************************************************************
	.sect	".text"
	.align	4
||$C$CON1||:	.bits	g_ppcArgv,32
	.align	4
||$C$CON2||:	.bits	g_psCmdTable,32
;*****************************************************************************
;* UNDEFINED EXTERNAL REFERENCES                                             *
;*****************************************************************************
	.global	strcmp
	.global	g_psCmdTable

;******************************************************************************
;* BUILD ATTRIBUTES                                                           *
;******************************************************************************
	.battr "aeabi", Tag_File, 1, Tag_ABI_PCS_wchar_t(2)
	.battr "aeabi", Tag_File, 1, Tag_ABI_FP_rounding(0)
	.battr "aeabi", Tag_File, 1, Tag_ABI_FP_denormal(0)
	.battr "aeabi", Tag_File, 1, Tag_ABI_FP_exceptions(0)
	.battr "aeabi", Tag_File, 1, Tag_ABI_FP_number_model(1)
	.battr "aeabi", Tag_File, 1, Tag_ABI_enum_size(0)
	.battr "aeabi", Tag_File, 1, Tag_ABI_optimization_goals(5)
	.battr "aeabi", Tag_File, 1, Tag_ABI_FP_optimization_goals(0)
	.battr "TI", Tag_File, 1, Tag_Bitfield_layout(2)
	.battr "TI", Tag_File, 1, Tag_FP_interface(1)

;******************************************************************************
;* TYPE INFORMATION                                                           *
;******************************************************************************

$C$DW$T$27	.dwtag  DW_TAG_structure_type
	.dwattr $C$DW$T$27, DW_AT_byte_size(0x0c)
$C$DW$16	.dwtag  DW_TAG_member
	.dwattr $C$DW$16, DW_AT_type(*$C$DW$T$21)
	.dwattr $C$DW$16, DW_AT_name("pcCmd")
	.dwattr $C$DW$16, DW_AT_TI_symbol_name("pcCmd")
	.dwattr $C$DW$16, DW_AT_data_member_location[DW_OP_plus_uconst 0x0]
	.dwattr $C$DW$16, DW_AT_accessibility(DW_ACCESS_public)
	.dwattr $C$DW$16, DW_AT_decl_file("C:/ti6/TivaWare_C_Series-2.1.0.12573/utils/cmdline.h")
	.dwattr $C$DW$16, DW_AT_decl_line(0x5b)
	.dwattr $C$DW$16, DW_AT_decl_column(0x11)
$C$DW$17	.dwtag  DW_TAG_member
	.dwattr $C$DW$17, DW_AT_type(*$C$DW$T$26)
	.dwattr $C$DW$17, DW_AT_name("pfnCmd")
	.dwattr $C$DW$17, DW_AT_TI_symbol_name("pfnCmd")
	.dwattr $C$DW$17, DW_AT_data_member_location[DW_OP_plus_uconst 0x4]
	.dwattr $C$DW$17, DW_AT_accessibility(DW_ACCESS_public)
	.dwattr $C$DW$17, DW_AT_decl_file("C:/ti6/TivaWare_C_Series-2.1.0.12573/utils/cmdline.h")
	.dwattr $C$DW$17, DW_AT_decl_line(0x60)
	.dwattr $C$DW$17, DW_AT_decl_column(0x10)
$C$DW$18	.dwtag  DW_TAG_member
	.dwattr $C$DW$18, DW_AT_type(*$C$DW$T$21)
	.dwattr $C$DW$18, DW_AT_name("pcHelp")
	.dwattr $C$DW$18, DW_AT_TI_symbol_name("pcHelp")
	.dwattr $C$DW$18, DW_AT_data_member_location[DW_OP_plus_uconst 0x8]
	.dwattr $C$DW$18, DW_AT_accessibility(DW_ACCESS_public)
	.dwattr $C$DW$18, DW_AT_decl_file("C:/ti6/TivaWare_C_Series-2.1.0.12573/utils/cmdline.h")
	.dwattr $C$DW$18, DW_AT_decl_line(0x65)
	.dwattr $C$DW$18, DW_AT_decl_column(0x11)
	.dwendtag $C$DW$T$27

	.dwattr $C$DW$T$27, DW_AT_decl_file("C:/ti6/TivaWare_C_Series-2.1.0.12573/utils/cmdline.h")
	.dwattr $C$DW$T$27, DW_AT_decl_line(0x57)
	.dwattr $C$DW$T$27, DW_AT_decl_column(0x01)
$C$DW$T$29	.dwtag  DW_TAG_typedef, DW_AT_name("tCmdLineEntry")
	.dwattr $C$DW$T$29, DW_AT_type(*$C$DW$T$27)
	.dwattr $C$DW$T$29, DW_AT_language(DW_LANG_C)
	.dwattr $C$DW$T$29, DW_AT_decl_file("C:/ti6/TivaWare_C_Series-2.1.0.12573/utils/cmdline.h")
	.dwattr $C$DW$T$29, DW_AT_decl_line(0x67)
	.dwattr $C$DW$T$29, DW_AT_decl_column(0x01)

$C$DW$T$30	.dwtag  DW_TAG_array_type
	.dwattr $C$DW$T$30, DW_AT_type(*$C$DW$T$29)
	.dwattr $C$DW$T$30, DW_AT_language(DW_LANG_C)
$C$DW$19	.dwtag  DW_TAG_subrange_type
	.dwendtag $C$DW$T$30

$C$DW$T$31	.dwtag  DW_TAG_pointer_type
	.dwattr $C$DW$T$31, DW_AT_type(*$C$DW$T$29)
	.dwattr $C$DW$T$31, DW_AT_address_class(0x20)
$C$DW$T$2	.dwtag  DW_TAG_unspecified_type
	.dwattr $C$DW$T$2, DW_AT_name("void")
$C$DW$T$3	.dwtag  DW_TAG_pointer_type
	.dwattr $C$DW$T$3, DW_AT_type(*$C$DW$T$2)
	.dwattr $C$DW$T$3, DW_AT_address_class(0x20)
$C$DW$T$4	.dwtag  DW_TAG_base_type
	.dwattr $C$DW$T$4, DW_AT_encoding(DW_ATE_boolean)
	.dwattr $C$DW$T$4, DW_AT_name("bool")
	.dwattr $C$DW$T$4, DW_AT_byte_size(0x01)
$C$DW$T$5	.dwtag  DW_TAG_base_type
	.dwattr $C$DW$T$5, DW_AT_encoding(DW_ATE_signed_char)
	.dwattr $C$DW$T$5, DW_AT_name("signed char")
	.dwattr $C$DW$T$5, DW_AT_byte_size(0x01)
$C$DW$T$32	.dwtag  DW_TAG_typedef, DW_AT_name("int8_t")
	.dwattr $C$DW$T$32, DW_AT_type(*$C$DW$T$5)
	.dwattr $C$DW$T$32, DW_AT_language(DW_LANG_C)
	.dwattr $C$DW$T$32, DW_AT_decl_file("C:/ti6/ccsv6/tools/compiler/arm_5.1.6/include/stdint.h")
	.dwattr $C$DW$T$32, DW_AT_decl_line(0x2a)
	.dwattr $C$DW$T$32, DW_AT_decl_column(0x1d)
$C$DW$T$33	.dwtag  DW_TAG_typedef, DW_AT_name("int_least8_t")
	.dwattr $C$DW$T$33, DW_AT_type(*$C$DW$T$32)
	.dwattr $C$DW$T$33, DW_AT_language(DW_LANG_C)
	.dwattr $C$DW$T$33, DW_AT_decl_file("C:/ti6/ccsv6/tools/compiler/arm_5.1.6/include/stdint.h")
	.dwattr $C$DW$T$33, DW_AT_decl_line(0x37)
	.dwattr $C$DW$T$33, DW_AT_decl_column(0x17)
$C$DW$T$6	.dwtag  DW_TAG_base_type
	.dwattr $C$DW$T$6, DW_AT_encoding(DW_ATE_unsigned_char)
	.dwattr $C$DW$T$6, DW_AT_name("unsigned char")
	.dwattr $C$DW$T$6, DW_AT_byte_size(0x01)
$C$DW$T$34	.dwtag  DW_TAG_typedef, DW_AT_name("uint8_t")
	.dwattr $C$DW$T$34, DW_AT_type(*$C$DW$T$6)
	.dwattr $C$DW$T$34, DW_AT_language(DW_LANG_C)
	.dwattr $C$DW$T$34, DW_AT_decl_file("C:/ti6/ccsv6/tools/compiler/arm_5.1.6/include/stdint.h")
	.dwattr $C$DW$T$34, DW_AT_decl_line(0x2b)
	.dwattr $C$DW$T$34, DW_AT_decl_column(0x1c)
$C$DW$T$35	.dwtag  DW_TAG_typedef, DW_AT_name("uint_least8_t")
	.dwattr $C$DW$T$35, DW_AT_type(*$C$DW$T$34)
	.dwattr $C$DW$T$35, DW_AT_language(DW_LANG_C)
	.dwattr $C$DW$T$35, DW_AT_decl_file("C:/ti6/ccsv6/tools/compiler/arm_5.1.6/include/stdint.h")
	.dwattr $C$DW$T$35, DW_AT_decl_line(0x38)
	.dwattr $C$DW$T$35, DW_AT_decl_column(0x16)
$C$DW$T$7	.dwtag  DW_TAG_base_type
	.dwattr $C$DW$T$7, DW_AT_encoding(DW_ATE_signed_char)
	.dwattr $C$DW$T$7, DW_AT_name("wchar_t")
	.dwattr $C$DW$T$7, DW_AT_byte_size(0x02)
$C$DW$T$8	.dwtag  DW_TAG_base_type
	.dwattr $C$DW$T$8, DW_AT_encoding(DW_ATE_signed)
	.dwattr $C$DW$T$8, DW_AT_name("short")
	.dwattr $C$DW$T$8, DW_AT_byte_size(0x02)
$C$DW$T$36	.dwtag  DW_TAG_typedef, DW_AT_name("int16_t")
	.dwattr $C$DW$T$36, DW_AT_type(*$C$DW$T$8)
	.dwattr $C$DW$T$36, DW_AT_language(DW_LANG_C)
	.dwattr $C$DW$T$36, DW_AT_decl_file("C:/ti6/ccsv6/tools/compiler/arm_5.1.6/include/stdint.h")
	.dwattr $C$DW$T$36, DW_AT_decl_line(0x2c)
	.dwattr $C$DW$T$36, DW_AT_decl_column(0x1d)
$C$DW$T$37	.dwtag  DW_TAG_typedef, DW_AT_name("int_least16_t")
	.dwattr $C$DW$T$37, DW_AT_type(*$C$DW$T$36)
	.dwattr $C$DW$T$37, DW_AT_language(DW_LANG_C)
	.dwattr $C$DW$T$37, DW_AT_decl_file("C:/ti6/ccsv6/tools/compiler/arm_5.1.6/include/stdint.h")
	.dwattr $C$DW$T$37, DW_AT_decl_line(0x3a)
	.dwattr $C$DW$T$37, DW_AT_decl_column(0x17)
$C$DW$T$9	.dwtag  DW_TAG_base_type
	.dwattr $C$DW$T$9, DW_AT_encoding(DW_ATE_unsigned)
	.dwattr $C$DW$T$9, DW_AT_name("unsigned short")
	.dwattr $C$DW$T$9, DW_AT_byte_size(0x02)
$C$DW$T$38	.dwtag  DW_TAG_typedef, DW_AT_name("_Wchart")
	.dwattr $C$DW$T$38, DW_AT_type(*$C$DW$T$9)
	.dwattr $C$DW$T$38, DW_AT_language(DW_LANG_C)
	.dwattr $C$DW$T$38, DW_AT_decl_file("C:/ti6/ccsv6/tools/compiler/arm_5.1.6/include/yvals.h")
	.dwattr $C$DW$T$38, DW_AT_decl_line(0x1fe)
	.dwattr $C$DW$T$38, DW_AT_decl_column(0x21)
$C$DW$T$39	.dwtag  DW_TAG_typedef, DW_AT_name("_Wintt")
	.dwattr $C$DW$T$39, DW_AT_type(*$C$DW$T$9)
	.dwattr $C$DW$T$39, DW_AT_language(DW_LANG_C)
	.dwattr $C$DW$T$39, DW_AT_decl_file("C:/ti6/ccsv6/tools/compiler/arm_5.1.6/include/yvals.h")
	.dwattr $C$DW$T$39, DW_AT_decl_line(0x1ff)
	.dwattr $C$DW$T$39, DW_AT_decl_column(0x21)
$C$DW$T$40	.dwtag  DW_TAG_typedef, DW_AT_name("uint16_t")
	.dwattr $C$DW$T$40, DW_AT_type(*$C$DW$T$9)
	.dwattr $C$DW$T$40, DW_AT_language(DW_LANG_C)
	.dwattr $C$DW$T$40, DW_AT_decl_file("C:/ti6/ccsv6/tools/compiler/arm_5.1.6/include/stdint.h")
	.dwattr $C$DW$T$40, DW_AT_decl_line(0x2d)
	.dwattr $C$DW$T$40, DW_AT_decl_column(0x1c)
$C$DW$T$41	.dwtag  DW_TAG_typedef, DW_AT_name("uint_least16_t")
	.dwattr $C$DW$T$41, DW_AT_type(*$C$DW$T$40)
	.dwattr $C$DW$T$41, DW_AT_language(DW_LANG_C)
	.dwattr $C$DW$T$41, DW_AT_decl_file("C:/ti6/ccsv6/tools/compiler/arm_5.1.6/include/stdint.h")
	.dwattr $C$DW$T$41, DW_AT_decl_line(0x3b)
	.dwattr $C$DW$T$41, DW_AT_decl_column(0x16)
$C$DW$T$10	.dwtag  DW_TAG_base_type
	.dwattr $C$DW$T$10, DW_AT_encoding(DW_ATE_signed)
	.dwattr $C$DW$T$10, DW_AT_name("int")
	.dwattr $C$DW$T$10, DW_AT_byte_size(0x04)
$C$DW$T$42	.dwtag  DW_TAG_typedef, DW_AT_name("_Ptrdifft")
	.dwattr $C$DW$T$42, DW_AT_type(*$C$DW$T$10)
	.dwattr $C$DW$T$42, DW_AT_language(DW_LANG_C)
	.dwattr $C$DW$T$42, DW_AT_decl_file("C:/ti6/ccsv6/tools/compiler/arm_5.1.6/include/yvals.h")
	.dwattr $C$DW$T$42, DW_AT_decl_line(0xa6)
	.dwattr $C$DW$T$42, DW_AT_decl_column(0x1e)

$C$DW$T$24	.dwtag  DW_TAG_subroutine_type
	.dwattr $C$DW$T$24, DW_AT_type(*$C$DW$T$10)
	.dwattr $C$DW$T$24, DW_AT_language(DW_LANG_C)
$C$DW$20	.dwtag  DW_TAG_formal_parameter
	.dwattr $C$DW$20, DW_AT_type(*$C$DW$T$10)
$C$DW$21	.dwtag  DW_TAG_formal_parameter
	.dwattr $C$DW$21, DW_AT_type(*$C$DW$T$23)
	.dwendtag $C$DW$T$24

$C$DW$T$25	.dwtag  DW_TAG_pointer_type
	.dwattr $C$DW$T$25, DW_AT_type(*$C$DW$T$24)
	.dwattr $C$DW$T$25, DW_AT_address_class(0x20)
$C$DW$T$26	.dwtag  DW_TAG_typedef, DW_AT_name("pfnCmdLine")
	.dwattr $C$DW$T$26, DW_AT_type(*$C$DW$T$25)
	.dwattr $C$DW$T$26, DW_AT_language(DW_LANG_C)
	.dwattr $C$DW$T$26, DW_AT_decl_file("C:/ti6/TivaWare_C_Series-2.1.0.12573/utils/cmdline.h")
	.dwattr $C$DW$T$26, DW_AT_decl_line(0x4f)
	.dwattr $C$DW$T$26, DW_AT_decl_column(0x0f)
$C$DW$T$46	.dwtag  DW_TAG_typedef, DW_AT_name("int32_t")
	.dwattr $C$DW$T$46, DW_AT_type(*$C$DW$T$10)
	.dwattr $C$DW$T$46, DW_AT_language(DW_LANG_C)
	.dwattr $C$DW$T$46, DW_AT_decl_file("C:/ti6/ccsv6/tools/compiler/arm_5.1.6/include/stdint.h")
	.dwattr $C$DW$T$46, DW_AT_decl_line(0x2e)
	.dwattr $C$DW$T$46, DW_AT_decl_column(0x1d)
$C$DW$T$47	.dwtag  DW_TAG_typedef, DW_AT_name("int_fast16_t")
	.dwattr $C$DW$T$47, DW_AT_type(*$C$DW$T$46)
	.dwattr $C$DW$T$47, DW_AT_language(DW_LANG_C)
	.dwattr $C$DW$T$47, DW_AT_decl_file("C:/ti6/ccsv6/tools/compiler/arm_5.1.6/include/stdint.h")
	.dwattr $C$DW$T$47, DW_AT_decl_line(0x47)
	.dwattr $C$DW$T$47, DW_AT_decl_column(0x17)
$C$DW$T$48	.dwtag  DW_TAG_typedef, DW_AT_name("int_fast32_t")
	.dwattr $C$DW$T$48, DW_AT_type(*$C$DW$T$46)
	.dwattr $C$DW$T$48, DW_AT_language(DW_LANG_C)
	.dwattr $C$DW$T$48, DW_AT_decl_file("C:/ti6/ccsv6/tools/compiler/arm_5.1.6/include/stdint.h")
	.dwattr $C$DW$T$48, DW_AT_decl_line(0x4a)
	.dwattr $C$DW$T$48, DW_AT_decl_column(0x17)
$C$DW$T$49	.dwtag  DW_TAG_typedef, DW_AT_name("int_fast8_t")
	.dwattr $C$DW$T$49, DW_AT_type(*$C$DW$T$46)
	.dwattr $C$DW$T$49, DW_AT_language(DW_LANG_C)
	.dwattr $C$DW$T$49, DW_AT_decl_file("C:/ti6/ccsv6/tools/compiler/arm_5.1.6/include/stdint.h")
	.dwattr $C$DW$T$49, DW_AT_decl_line(0x45)
	.dwattr $C$DW$T$49, DW_AT_decl_column(0x17)
$C$DW$T$50	.dwtag  DW_TAG_typedef, DW_AT_name("int_least32_t")
	.dwattr $C$DW$T$50, DW_AT_type(*$C$DW$T$46)
	.dwattr $C$DW$T$50, DW_AT_language(DW_LANG_C)
	.dwattr $C$DW$T$50, DW_AT_decl_file("C:/ti6/ccsv6/tools/compiler/arm_5.1.6/include/stdint.h")
	.dwattr $C$DW$T$50, DW_AT_decl_line(0x3c)
	.dwattr $C$DW$T$50, DW_AT_decl_column(0x17)
$C$DW$T$51	.dwtag  DW_TAG_typedef, DW_AT_name("intptr_t")
	.dwattr $C$DW$T$51, DW_AT_type(*$C$DW$T$10)
	.dwattr $C$DW$T$51, DW_AT_language(DW_LANG_C)
	.dwattr $C$DW$T$51, DW_AT_decl_file("C:/ti6/ccsv6/tools/compiler/arm_5.1.6/include/stdint.h")
	.dwattr $C$DW$T$51, DW_AT_decl_line(0x52)
	.dwattr $C$DW$T$51, DW_AT_decl_column(0x1a)
$C$DW$T$11	.dwtag  DW_TAG_base_type
	.dwattr $C$DW$T$11, DW_AT_encoding(DW_ATE_unsigned)
	.dwattr $C$DW$T$11, DW_AT_name("unsigned int")
	.dwattr $C$DW$T$11, DW_AT_byte_size(0x04)
$C$DW$T$52	.dwtag  DW_TAG_typedef, DW_AT_name("_Sizet")
	.dwattr $C$DW$T$52, DW_AT_type(*$C$DW$T$11)
	.dwattr $C$DW$T$52, DW_AT_language(DW_LANG_C)
	.dwattr $C$DW$T$52, DW_AT_decl_file("C:/ti6/ccsv6/tools/compiler/arm_5.1.6/include/yvals.h")
	.dwattr $C$DW$T$52, DW_AT_decl_line(0xac)
	.dwattr $C$DW$T$52, DW_AT_decl_column(0x1a)
$C$DW$T$53	.dwtag  DW_TAG_typedef, DW_AT_name("size_t")
	.dwattr $C$DW$T$53, DW_AT_type(*$C$DW$T$11)
	.dwattr $C$DW$T$53, DW_AT_language(DW_LANG_C)
	.dwattr $C$DW$T$53, DW_AT_decl_file("C:/ti6/ccsv6/tools/compiler/arm_5.1.6/include/string.h")
	.dwattr $C$DW$T$53, DW_AT_decl_line(0x39)
	.dwattr $C$DW$T$53, DW_AT_decl_column(0x19)
$C$DW$T$54	.dwtag  DW_TAG_typedef, DW_AT_name("uint32_t")
	.dwattr $C$DW$T$54, DW_AT_type(*$C$DW$T$11)
	.dwattr $C$DW$T$54, DW_AT_language(DW_LANG_C)
	.dwattr $C$DW$T$54, DW_AT_decl_file("C:/ti6/ccsv6/tools/compiler/arm_5.1.6/include/stdint.h")
	.dwattr $C$DW$T$54, DW_AT_decl_line(0x2f)
	.dwattr $C$DW$T$54, DW_AT_decl_column(0x1c)
$C$DW$T$55	.dwtag  DW_TAG_typedef, DW_AT_name("uint_fast16_t")
	.dwattr $C$DW$T$55, DW_AT_type(*$C$DW$T$54)
	.dwattr $C$DW$T$55, DW_AT_language(DW_LANG_C)
	.dwattr $C$DW$T$55, DW_AT_decl_file("C:/ti6/ccsv6/tools/compiler/arm_5.1.6/include/stdint.h")
	.dwattr $C$DW$T$55, DW_AT_decl_line(0x48)
	.dwattr $C$DW$T$55, DW_AT_decl_column(0x16)
$C$DW$T$56	.dwtag  DW_TAG_typedef, DW_AT_name("uint_fast32_t")
	.dwattr $C$DW$T$56, DW_AT_type(*$C$DW$T$54)
	.dwattr $C$DW$T$56, DW_AT_language(DW_LANG_C)
	.dwattr $C$DW$T$56, DW_AT_decl_file("C:/ti6/ccsv6/tools/compiler/arm_5.1.6/include/stdint.h")
	.dwattr $C$DW$T$56, DW_AT_decl_line(0x4b)
	.dwattr $C$DW$T$56, DW_AT_decl_column(0x16)
$C$DW$T$57	.dwtag  DW_TAG_typedef, DW_AT_name("uint_fast8_t")
	.dwattr $C$DW$T$57, DW_AT_type(*$C$DW$T$54)
	.dwattr $C$DW$T$57, DW_AT_language(DW_LANG_C)
	.dwattr $C$DW$T$57, DW_AT_decl_file("C:/ti6/ccsv6/tools/compiler/arm_5.1.6/include/stdint.h")
	.dwattr $C$DW$T$57, DW_AT_decl_line(0x46)
	.dwattr $C$DW$T$57, DW_AT_decl_column(0x16)
$C$DW$T$58	.dwtag  DW_TAG_typedef, DW_AT_name("uint_least32_t")
	.dwattr $C$DW$T$58, DW_AT_type(*$C$DW$T$54)
	.dwattr $C$DW$T$58, DW_AT_language(DW_LANG_C)
	.dwattr $C$DW$T$58, DW_AT_decl_file("C:/ti6/ccsv6/tools/compiler/arm_5.1.6/include/stdint.h")
	.dwattr $C$DW$T$58, DW_AT_decl_line(0x3d)
	.dwattr $C$DW$T$58, DW_AT_decl_column(0x16)
$C$DW$T$59	.dwtag  DW_TAG_typedef, DW_AT_name("uintptr_t")
	.dwattr $C$DW$T$59, DW_AT_type(*$C$DW$T$11)
	.dwattr $C$DW$T$59, DW_AT_language(DW_LANG_C)
	.dwattr $C$DW$T$59, DW_AT_decl_file("C:/ti6/ccsv6/tools/compiler/arm_5.1.6/include/stdint.h")
	.dwattr $C$DW$T$59, DW_AT_decl_line(0x53)
	.dwattr $C$DW$T$59, DW_AT_decl_column(0x1a)
$C$DW$T$12	.dwtag  DW_TAG_base_type
	.dwattr $C$DW$T$12, DW_AT_encoding(DW_ATE_signed)
	.dwattr $C$DW$T$12, DW_AT_name("long")
	.dwattr $C$DW$T$12, DW_AT_byte_size(0x04)
$C$DW$T$60	.dwtag  DW_TAG_typedef, DW_AT_name("_Int32t")
	.dwattr $C$DW$T$60, DW_AT_type(*$C$DW$T$12)
	.dwattr $C$DW$T$60, DW_AT_language(DW_LANG_C)
	.dwattr $C$DW$T$60, DW_AT_decl_file("C:/ti6/ccsv6/tools/compiler/arm_5.1.6/include/yvals.h")
	.dwattr $C$DW$T$60, DW_AT_decl_line(0xa2)
	.dwattr $C$DW$T$60, DW_AT_decl_column(0x0e)
$C$DW$T$13	.dwtag  DW_TAG_base_type
	.dwattr $C$DW$T$13, DW_AT_encoding(DW_ATE_unsigned)
	.dwattr $C$DW$T$13, DW_AT_name("unsigned long")
	.dwattr $C$DW$T$13, DW_AT_byte_size(0x04)
$C$DW$T$61	.dwtag  DW_TAG_typedef, DW_AT_name("_Uint32t")
	.dwattr $C$DW$T$61, DW_AT_type(*$C$DW$T$13)
	.dwattr $C$DW$T$61, DW_AT_language(DW_LANG_C)
	.dwattr $C$DW$T$61, DW_AT_decl_file("C:/ti6/ccsv6/tools/compiler/arm_5.1.6/include/yvals.h")
	.dwattr $C$DW$T$61, DW_AT_decl_line(0xa3)
	.dwattr $C$DW$T$61, DW_AT_decl_column(0x17)
$C$DW$T$14	.dwtag  DW_TAG_base_type
	.dwattr $C$DW$T$14, DW_AT_encoding(DW_ATE_signed)
	.dwattr $C$DW$T$14, DW_AT_name("long long")
	.dwattr $C$DW$T$14, DW_AT_byte_size(0x08)
$C$DW$T$62	.dwtag  DW_TAG_typedef, DW_AT_name("_Longlong")
	.dwattr $C$DW$T$62, DW_AT_type(*$C$DW$T$14)
	.dwattr $C$DW$T$62, DW_AT_language(DW_LANG_C)
	.dwattr $C$DW$T$62, DW_AT_decl_file("C:/ti6/ccsv6/tools/compiler/arm_5.1.6/include/yvals.h")
	.dwattr $C$DW$T$62, DW_AT_decl_line(0x1ce)
	.dwattr $C$DW$T$62, DW_AT_decl_column(0x13)
$C$DW$T$63	.dwtag  DW_TAG_typedef, DW_AT_name("int64_t")
	.dwattr $C$DW$T$63, DW_AT_type(*$C$DW$T$14)
	.dwattr $C$DW$T$63, DW_AT_language(DW_LANG_C)
	.dwattr $C$DW$T$63, DW_AT_decl_file("C:/ti6/ccsv6/tools/compiler/arm_5.1.6/include/stdint.h")
	.dwattr $C$DW$T$63, DW_AT_decl_line(0x32)
	.dwattr $C$DW$T$63, DW_AT_decl_column(0x21)
$C$DW$T$64	.dwtag  DW_TAG_typedef, DW_AT_name("int_fast64_t")
	.dwattr $C$DW$T$64, DW_AT_type(*$C$DW$T$63)
	.dwattr $C$DW$T$64, DW_AT_language(DW_LANG_C)
	.dwattr $C$DW$T$64, DW_AT_decl_file("C:/ti6/ccsv6/tools/compiler/arm_5.1.6/include/stdint.h")
	.dwattr $C$DW$T$64, DW_AT_decl_line(0x4e)
	.dwattr $C$DW$T$64, DW_AT_decl_column(0x17)
$C$DW$T$65	.dwtag  DW_TAG_typedef, DW_AT_name("int_least64_t")
	.dwattr $C$DW$T$65, DW_AT_type(*$C$DW$T$63)
	.dwattr $C$DW$T$65, DW_AT_language(DW_LANG_C)
	.dwattr $C$DW$T$65, DW_AT_decl_file("C:/ti6/ccsv6/tools/compiler/arm_5.1.6/include/stdint.h")
	.dwattr $C$DW$T$65, DW_AT_decl_line(0x40)
	.dwattr $C$DW$T$65, DW_AT_decl_column(0x17)
$C$DW$T$66	.dwtag  DW_TAG_typedef, DW_AT_name("intmax_t")
	.dwattr $C$DW$T$66, DW_AT_type(*$C$DW$T$14)
	.dwattr $C$DW$T$66, DW_AT_language(DW_LANG_C)
	.dwattr $C$DW$T$66, DW_AT_decl_file("C:/ti6/ccsv6/tools/compiler/arm_5.1.6/include/stdint.h")
	.dwattr $C$DW$T$66, DW_AT_decl_line(0x56)
	.dwattr $C$DW$T$66, DW_AT_decl_column(0x20)
$C$DW$T$15	.dwtag  DW_TAG_base_type
	.dwattr $C$DW$T$15, DW_AT_encoding(DW_ATE_unsigned)
	.dwattr $C$DW$T$15, DW_AT_name("unsigned long long")
	.dwattr $C$DW$T$15, DW_AT_byte_size(0x08)
$C$DW$T$67	.dwtag  DW_TAG_typedef, DW_AT_name("_ULonglong")
	.dwattr $C$DW$T$67, DW_AT_type(*$C$DW$T$15)
	.dwattr $C$DW$T$67, DW_AT_language(DW_LANG_C)
	.dwattr $C$DW$T$67, DW_AT_decl_file("C:/ti6/ccsv6/tools/compiler/arm_5.1.6/include/yvals.h")
	.dwattr $C$DW$T$67, DW_AT_decl_line(0x1cf)
	.dwattr $C$DW$T$67, DW_AT_decl_column(0x14)
$C$DW$T$68	.dwtag  DW_TAG_typedef, DW_AT_name("uint64_t")
	.dwattr $C$DW$T$68, DW_AT_type(*$C$DW$T$15)
	.dwattr $C$DW$T$68, DW_AT_language(DW_LANG_C)
	.dwattr $C$DW$T$68, DW_AT_decl_file("C:/ti6/ccsv6/tools/compiler/arm_5.1.6/include/stdint.h")
	.dwattr $C$DW$T$68, DW_AT_decl_line(0x33)
	.dwattr $C$DW$T$68, DW_AT_decl_column(0x20)
$C$DW$T$69	.dwtag  DW_TAG_typedef, DW_AT_name("uint_fast64_t")
	.dwattr $C$DW$T$69, DW_AT_type(*$C$DW$T$68)
	.dwattr $C$DW$T$69, DW_AT_language(DW_LANG_C)
	.dwattr $C$DW$T$69, DW_AT_decl_file("C:/ti6/ccsv6/tools/compiler/arm_5.1.6/include/stdint.h")
	.dwattr $C$DW$T$69, DW_AT_decl_line(0x4f)
	.dwattr $C$DW$T$69, DW_AT_decl_column(0x16)
$C$DW$T$70	.dwtag  DW_TAG_typedef, DW_AT_name("uint_least64_t")
	.dwattr $C$DW$T$70, DW_AT_type(*$C$DW$T$68)
	.dwattr $C$DW$T$70, DW_AT_language(DW_LANG_C)
	.dwattr $C$DW$T$70, DW_AT_decl_file("C:/ti6/ccsv6/tools/compiler/arm_5.1.6/include/stdint.h")
	.dwattr $C$DW$T$70, DW_AT_decl_line(0x41)
	.dwattr $C$DW$T$70, DW_AT_decl_column(0x16)
$C$DW$T$71	.dwtag  DW_TAG_typedef, DW_AT_name("uintmax_t")
	.dwattr $C$DW$T$71, DW_AT_type(*$C$DW$T$15)
	.dwattr $C$DW$T$71, DW_AT_language(DW_LANG_C)
	.dwattr $C$DW$T$71, DW_AT_decl_file("C:/ti6/ccsv6/tools/compiler/arm_5.1.6/include/stdint.h")
	.dwattr $C$DW$T$71, DW_AT_decl_line(0x57)
	.dwattr $C$DW$T$71, DW_AT_decl_column(0x20)
$C$DW$T$16	.dwtag  DW_TAG_base_type
	.dwattr $C$DW$T$16, DW_AT_encoding(DW_ATE_float)
	.dwattr $C$DW$T$16, DW_AT_name("float")
	.dwattr $C$DW$T$16, DW_AT_byte_size(0x04)
$C$DW$T$17	.dwtag  DW_TAG_base_type
	.dwattr $C$DW$T$17, DW_AT_encoding(DW_ATE_float)
	.dwattr $C$DW$T$17, DW_AT_name("double")
	.dwattr $C$DW$T$17, DW_AT_byte_size(0x08)
$C$DW$T$18	.dwtag  DW_TAG_base_type
	.dwattr $C$DW$T$18, DW_AT_encoding(DW_ATE_float)
	.dwattr $C$DW$T$18, DW_AT_name("long double")
	.dwattr $C$DW$T$18, DW_AT_byte_size(0x08)
$C$DW$T$72	.dwtag  DW_TAG_typedef, DW_AT_name("_Sysch_t")
	.dwattr $C$DW$T$72, DW_AT_type(*$C$DW$T$6)
	.dwattr $C$DW$T$72, DW_AT_language(DW_LANG_C)
	.dwattr $C$DW$T$72, DW_AT_decl_file("C:/ti6/ccsv6/tools/compiler/arm_5.1.6/include/yvals.h")
	.dwattr $C$DW$T$72, DW_AT_decl_line(0x23a)
	.dwattr $C$DW$T$72, DW_AT_decl_column(0x0e)
$C$DW$T$20	.dwtag  DW_TAG_const_type
	.dwattr $C$DW$T$20, DW_AT_type(*$C$DW$T$6)
$C$DW$T$21	.dwtag  DW_TAG_pointer_type
	.dwattr $C$DW$T$21, DW_AT_type(*$C$DW$T$20)
	.dwattr $C$DW$T$21, DW_AT_address_class(0x20)
$C$DW$T$22	.dwtag  DW_TAG_pointer_type
	.dwattr $C$DW$T$22, DW_AT_type(*$C$DW$T$6)
	.dwattr $C$DW$T$22, DW_AT_address_class(0x20)
$C$DW$T$23	.dwtag  DW_TAG_pointer_type
	.dwattr $C$DW$T$23, DW_AT_type(*$C$DW$T$22)
	.dwattr $C$DW$T$23, DW_AT_address_class(0x20)

$C$DW$T$73	.dwtag  DW_TAG_array_type
	.dwattr $C$DW$T$73, DW_AT_type(*$C$DW$T$22)
	.dwattr $C$DW$T$73, DW_AT_language(DW_LANG_C)
	.dwattr $C$DW$T$73, DW_AT_byte_size(0x24)
$C$DW$22	.dwtag  DW_TAG_subrange_type
	.dwattr $C$DW$22, DW_AT_upper_bound(0x08)
	.dwendtag $C$DW$T$73

$C$DW$T$74	.dwtag  DW_TAG_typedef, DW_AT_name("__builtin_va_list")
	.dwattr $C$DW$T$74, DW_AT_type(*$C$DW$T$22)
	.dwattr $C$DW$T$74, DW_AT_language(DW_LANG_C)
	.dwattr $C$DW$T$74, DW_AT_decl_file("../uartp/cmdline.c")
	.dwattr $C$DW$T$74, DW_AT_decl_line(0xba)
	.dwattr $C$DW$T$74, DW_AT_decl_column(0x01)
$C$DW$T$75	.dwtag  DW_TAG_base_type
	.dwattr $C$DW$T$75, DW_AT_encoding(DW_ATE_unsigned_char)
	.dwattr $C$DW$T$75, DW_AT_name("unsigned char")
	.dwattr $C$DW$T$75, DW_AT_byte_size(0x01)

$C$DW$T$28	.dwtag  DW_TAG_structure_type
	.dwattr $C$DW$T$28, DW_AT_name("__va_list")
	.dwattr $C$DW$T$28, DW_AT_byte_size(0x04)
$C$DW$23	.dwtag  DW_TAG_member
	.dwattr $C$DW$23, DW_AT_type(*$C$DW$T$3)
	.dwattr $C$DW$23, DW_AT_name("__ap")
	.dwattr $C$DW$23, DW_AT_TI_symbol_name("__ap")
	.dwattr $C$DW$23, DW_AT_data_member_location[DW_OP_plus_uconst 0x0]
	.dwattr $C$DW$23, DW_AT_accessibility(DW_ACCESS_public)
	.dwattr $C$DW$23, DW_AT_decl_file("C:/ti6/ccsv6/tools/compiler/arm_5.1.6/include/stdarg.h")
	.dwattr $C$DW$23, DW_AT_decl_line(0x32)
	.dwattr $C$DW$23, DW_AT_decl_column(0x0c)
	.dwendtag $C$DW$T$28

	.dwattr $C$DW$T$28, DW_AT_decl_file("C:/ti6/ccsv6/tools/compiler/arm_5.1.6/include/stdarg.h")
	.dwattr $C$DW$T$28, DW_AT_decl_line(0x31)
	.dwattr $C$DW$T$28, DW_AT_decl_column(0x10)
$C$DW$T$76	.dwtag  DW_TAG_typedef, DW_AT_name("va_list")
	.dwattr $C$DW$T$76, DW_AT_type(*$C$DW$T$28)
	.dwattr $C$DW$T$76, DW_AT_language(DW_LANG_C)
	.dwattr $C$DW$T$76, DW_AT_decl_file("C:/ti6/ccsv6/tools/compiler/arm_5.1.6/include/stdarg.h")
	.dwattr $C$DW$T$76, DW_AT_decl_line(0x33)
	.dwattr $C$DW$T$76, DW_AT_decl_column(0x03)
$C$DW$T$77	.dwtag  DW_TAG_typedef, DW_AT_name("_Va_list")
	.dwattr $C$DW$T$77, DW_AT_type(*$C$DW$T$76)
	.dwattr $C$DW$T$77, DW_AT_language(DW_LANG_C)
	.dwattr $C$DW$T$77, DW_AT_decl_file("C:/ti6/ccsv6/tools/compiler/arm_5.1.6/include/yvals.h")
	.dwattr $C$DW$T$77, DW_AT_decl_line(0x218)
	.dwattr $C$DW$T$77, DW_AT_decl_column(0x17)
	.dwattr $C$DW$CU, DW_AT_language(DW_LANG_C)

;***************************************************************
;* DWARF CIE ENTRIES                                           *
;***************************************************************

$C$DW$CIE	.dwcie 14
	.dwcfi	cfa_register, 13
	.dwcfi	cfa_offset, 0
	.dwcfi	undefined, 0
	.dwcfi	undefined, 1
	.dwcfi	undefined, 2
	.dwcfi	undefined, 3
	.dwcfi	same_value, 4
	.dwcfi	same_value, 5
	.dwcfi	same_value, 6
	.dwcfi	same_value, 7
	.dwcfi	same_value, 8
	.dwcfi	same_value, 9
	.dwcfi	same_value, 10
	.dwcfi	same_value, 11
	.dwcfi	undefined, 12
	.dwcfi	undefined, 13
	.dwcfi	undefined, 14
	.dwcfi	undefined, 14
	.dwcfi	undefined, 7
	.dwcfi	undefined, 64
	.dwcfi	undefined, 65
	.dwcfi	undefined, 66
	.dwcfi	undefined, 67
	.dwcfi	undefined, 68
	.dwcfi	undefined, 69
	.dwcfi	undefined, 70
	.dwcfi	undefined, 71
	.dwcfi	undefined, 72
	.dwcfi	undefined, 73
	.dwcfi	undefined, 74
	.dwcfi	undefined, 75
	.dwcfi	undefined, 76
	.dwcfi	undefined, 77
	.dwcfi	undefined, 78
	.dwcfi	undefined, 79
	.dwcfi	same_value, 80
	.dwcfi	same_value, 81
	.dwcfi	same_value, 82
	.dwcfi	same_value, 83
	.dwcfi	same_value, 84
	.dwcfi	same_value, 85
	.dwcfi	same_value, 86
	.dwcfi	same_value, 87
	.dwcfi	same_value, 88
	.dwcfi	same_value, 89
	.dwcfi	same_value, 90
	.dwcfi	same_value, 91
	.dwcfi	same_value, 92
	.dwcfi	same_value, 93
	.dwcfi	same_value, 94
	.dwcfi	same_value, 95
	.dwendentry
	.dwendtag $C$DW$CU

