TI ARM Assembler PC v5.1.6 Wed Feb 10 23:08:23 2016

Tools Copyright (c) 1996-2014 Texas Instruments Incorporated
gyro_f.asm                                                           PAGE    1

       1                    ;******************************************************************************
       2                    ;* TI ARM C/C++ Codegen                                             PC v5.1.6 *
       3                    ;* Date/Time created: Wed Feb 10 23:08:23 2016                                *
       4                    ;******************************************************************************
       5                            .compiler_opts --abi=eabi --arm_vmrs_si_workaround=on --code_state=16 --diag_wrap=off --disabl
       6 00000000                   .thumb
       7                    
       8                    $C$DW$CU        .dwtag  DW_TAG_compile_unit
       9                            .dwattr $C$DW$CU, DW_AT_name("../gyro_f.c")
      10                            .dwattr $C$DW$CU, DW_AT_producer("TI TI ARM C/C++ Codegen PC v5.1.6 Copyright (c) 1996-2014 Te
      11                            .dwattr $C$DW$CU, DW_AT_TI_version(0x01)
      12                            .dwattr $C$DW$CU, DW_AT_comp_dir("C:\ti6\workspace\tiva-pid\Debug")
      13                    
      14                    $C$DW$1 .dwtag  DW_TAG_subprogram, DW_AT_name("I2CReceiveN")
      15                            .dwattr $C$DW$1, DW_AT_TI_symbol_name("I2CReceiveN")
      16                            .dwattr $C$DW$1, DW_AT_declaration
      17                            .dwattr $C$DW$1, DW_AT_external
      18                            .dwattr $C$DW$1, DW_AT_decl_file("..\I2C/tiva_i2c.h")
      19                            .dwattr $C$DW$1, DW_AT_decl_line(0x15)
      20                            .dwattr $C$DW$1, DW_AT_decl_column(0x07)
      21                    $C$DW$2 .dwtag  DW_TAG_formal_parameter
      22                            .dwattr $C$DW$2, DW_AT_type(*$C$DW$T$26)
      23                    $C$DW$3 .dwtag  DW_TAG_formal_parameter
      24                            .dwattr $C$DW$3, DW_AT_type(*$C$DW$T$26)
      25                    $C$DW$4 .dwtag  DW_TAG_formal_parameter
      26                            .dwattr $C$DW$4, DW_AT_type(*$C$DW$T$26)
      27                    $C$DW$5 .dwtag  DW_TAG_formal_parameter
      28                            .dwattr $C$DW$5, DW_AT_type(*$C$DW$T$27)
      29                            .dwendtag $C$DW$1
      30                    
      31                    
      32                    $C$DW$6 .dwtag  DW_TAG_subprogram, DW_AT_name("I2CReceive")
      33                            .dwattr $C$DW$6, DW_AT_TI_symbol_name("I2CReceive")
      34                            .dwattr $C$DW$6, DW_AT_type(*$C$DW$T$50)
      35                            .dwattr $C$DW$6, DW_AT_declaration
      36                            .dwattr $C$DW$6, DW_AT_external
      37                            .dwattr $C$DW$6, DW_AT_decl_file("..\I2C/tiva_i2c.h")
      38                            .dwattr $C$DW$6, DW_AT_decl_line(0x16)
      39                            .dwattr $C$DW$6, DW_AT_decl_column(0x0a)
      40                    $C$DW$7 .dwtag  DW_TAG_formal_parameter
      41                            .dwattr $C$DW$7, DW_AT_type(*$C$DW$T$50)
      42                    $C$DW$8 .dwtag  DW_TAG_formal_parameter
      43                            .dwattr $C$DW$8, DW_AT_type(*$C$DW$T$26)
      44                            .dwendtag $C$DW$6
      45                    
      46 00000000                   .data
      47                            .align  4
      48                            .elfsym tempoDiReset$1,SYM_SIZE(4)
      49 00000000           tempoDiReset$1:
      50 00000000 00000000          .bits   0,32                    ; tempoDiReset$1 @ 0
      51                    
      52                    ;       C:\ti6\ccsv6\tools\compiler\arm_5.1.6\bin\armacpia.exe -@C:\\Users\\massimo\\AppData\\Local\\T
      53 00000000                   .sect   ".text"
      54                            .clink
      55                            .thumbfunc misuraAngoli
TI ARM Assembler PC v5.1.6 Wed Feb 10 23:08:23 2016

Tools Copyright (c) 1996-2014 Texas Instruments Incorporated
gyro_f.asm                                                           PAGE    2

      56 00000000                   .thumb
      57                            .global misuraAngoli
      58                    
      59                    $C$DW$9 .dwtag  DW_TAG_subprogram, DW_AT_name("misuraAngoli")
      60                            .dwattr $C$DW$9, DW_AT_low_pc(misuraAngoli)
      61                            .dwattr $C$DW$9, DW_AT_high_pc(0x00)
      62                            .dwattr $C$DW$9, DW_AT_TI_symbol_name("misuraAngoli")
      63                            .dwattr $C$DW$9, DW_AT_external
      64                            .dwattr $C$DW$9, DW_AT_TI_begin_file("../gyro_f.c")
      65                            .dwattr $C$DW$9, DW_AT_TI_begin_line(0x16)
      66                            .dwattr $C$DW$9, DW_AT_TI_begin_column(0x06)
      67                            .dwattr $C$DW$9, DW_AT_decl_file("../gyro_f.c")
      68                            .dwattr $C$DW$9, DW_AT_decl_line(0x16)
      69                            .dwattr $C$DW$9, DW_AT_decl_column(0x06)
      70                            .dwattr $C$DW$9, DW_AT_TI_max_frame_size(0x28)
      71                            .dwpsn  file "../gyro_f.c",line 22,column 27,is_stmt,address misuraAngoli,isa 1
      72                    
      73                            .dwfde $C$DW$CIE, misuraAngoli
      74                    $C$DW$10        .dwtag  DW_TAG_variable, DW_AT_name("tempoDiReset")
      75                            .dwattr $C$DW$10, DW_AT_TI_symbol_name("tempoDiReset$1")
      76                            .dwattr $C$DW$10, DW_AT_type(*$C$DW$T$50)
      77                            .dwattr $C$DW$10, DW_AT_location[DW_OP_addr tempoDiReset$1]
      78                    $C$DW$11        .dwtag  DW_TAG_formal_parameter, DW_AT_name("G")
      79                            .dwattr $C$DW$11, DW_AT_TI_symbol_name("G")
      80                            .dwattr $C$DW$11, DW_AT_type(*$C$DW$T$31)
      81                            .dwattr $C$DW$11, DW_AT_location[DW_OP_reg0]
      82                    
      83                    ;*****************************************************************************
      84                    ;* FUNCTION NAME: misuraAngoli                                               *
      85                    ;*                                                                           *
      86                    ;*   Regs Modified     : A1,A2,A3,A4,V9,SP,LR,SR,D0,D0_hi,D1,D1_hi,D2,D2_hi, *
      87                    ;*                           D3,D3_hi,D4,D4_hi,D5,D5_hi,D6,D6_hi,D7,D7_hi,   *
      88                    ;*                           FPEXC,FPSCR                                     *
      89                    ;*   Regs Used         : A1,A2,A3,A4,V9,SP,LR,SR,D0,D0_hi,D1,D1_hi,D2,D2_hi, *
      90                    ;*                           D3,D3_hi,D4,D4_hi,D5,D5_hi,D6,D6_hi,D7,D7_hi,   *
      91                    ;*                           FPEXC,FPSCR                                     *
      92                    ;*   Local Frame Size  : 0 Args + 32 Auto + 4 Save = 36 byte                 *
      93                    ;*****************************************************************************
      94 00000000           misuraAngoli:
      95                    ;* --------------------------------------------------------------------------*
      96                            .dwcfi  cfa_offset, 0
      97 00000000 B500              PUSH      {LR}                  ; [DPU_3_PIPE]  ; [ORIG 16-BIT INS]
      98                            .dwcfi  cfa_offset, 4
      99                            .dwcfi  save_reg_to_mem, 14, -4
     100 00000002 0D24F1AD          SUB       SP, SP, #36           ; [DPU_3_PIPE]  ; [KEEP 32-BIT INS]
     101                            .dwcfi  cfa_offset, 40
     102                    $C$DW$12        .dwtag  DW_TAG_variable, DW_AT_name("G")
     103                            .dwattr $C$DW$12, DW_AT_TI_symbol_name("G")
     104                            .dwattr $C$DW$12, DW_AT_type(*$C$DW$T$31)
     105                            .dwattr $C$DW$12, DW_AT_location[DW_OP_breg13 0]
     106                    $C$DW$13        .dwtag  DW_TAG_variable, DW_AT_name("valore")
     107                            .dwattr $C$DW$13, DW_AT_TI_symbol_name("valore")
     108                            .dwattr $C$DW$13, DW_AT_type(*$C$DW$T$50)
     109                            .dwattr $C$DW$13, DW_AT_location[DW_OP_breg13 4]
     110                    $C$DW$14        .dwtag  DW_TAG_variable, DW_AT_name("z")
TI ARM Assembler PC v5.1.6 Wed Feb 10 23:08:23 2016

Tools Copyright (c) 1996-2014 Texas Instruments Incorporated
gyro_f.asm                                                           PAGE    3

     111                            .dwattr $C$DW$14, DW_AT_TI_symbol_name("z")
     112                            .dwattr $C$DW$14, DW_AT_type(*$C$DW$T$23)
     113                            .dwattr $C$DW$14, DW_AT_location[DW_OP_breg13 8]
     114                    $C$DW$15        .dwtag  DW_TAG_variable, DW_AT_name("x")
     115                            .dwattr $C$DW$15, DW_AT_TI_symbol_name("x")
     116                            .dwattr $C$DW$15, DW_AT_type(*$C$DW$T$23)
     117                            .dwattr $C$DW$15, DW_AT_location[DW_OP_breg13 10]
     118                    $C$DW$16        .dwtag  DW_TAG_variable, DW_AT_name("y")
     119                            .dwattr $C$DW$16, DW_AT_TI_symbol_name("y")
     120                            .dwattr $C$DW$16, DW_AT_type(*$C$DW$T$23)
     121                            .dwattr $C$DW$16, DW_AT_location[DW_OP_breg13 12]
     122                    $C$DW$17        .dwtag  DW_TAG_variable, DW_AT_name("tmp")
     123                            .dwattr $C$DW$17, DW_AT_TI_symbol_name("tmp")
     124                            .dwattr $C$DW$17, DW_AT_type(*$C$DW$T$23)
     125                            .dwattr $C$DW$17, DW_AT_location[DW_OP_breg13 14]
     126                    $C$DW$18        .dwtag  DW_TAG_variable, DW_AT_name("buffer")
     127                            .dwattr $C$DW$18, DW_AT_TI_symbol_name("buffer")
     128                            .dwattr $C$DW$18, DW_AT_type(*$C$DW$T$35)
     129                            .dwattr $C$DW$18, DW_AT_location[DW_OP_breg13 16]
     130                    $C$DW$19        .dwtag  DW_TAG_variable, DW_AT_name("f")
     131                            .dwattr $C$DW$19, DW_AT_TI_symbol_name("f")
     132                            .dwattr $C$DW$19, DW_AT_type(*$C$DW$T$16)
     133                            .dwattr $C$DW$19, DW_AT_location[DW_OP_breg13 24]
     134                    $C$DW$20        .dwtag  DW_TAG_variable, DW_AT_name("DPS")
     135                            .dwattr $C$DW$20, DW_AT_TI_symbol_name("DPS")
     136                            .dwattr $C$DW$20, DW_AT_type(*$C$DW$T$16)
     137                            .dwattr $C$DW$20, DW_AT_location[DW_OP_breg13 28]
     138                    ;----------------------------------------------------------------------
     139                    ;  22 | void misuraAngoli(gyro *G){                                            
     140                    ;  24 | static uint32_t tempoDiReset = 0;                                      
     141                    ;  25 | uint32_t valore;                                                       
     142                    ;  26 | int16_t z, x, y, tmp;                                                  
     143                    ;  27 | uint8_t buffer[8];                                                     
     144                    ;----------------------------------------------------------------------
     145 00000006 9000              STR       A1, [SP, #0]          ; [DPU_3_PIPE] |22|  ; [ORIG 16-BIT INS]
     146                            .dwpsn  file "../gyro_f.c",line 28,column 15,is_stmt,isa 1
     147                    ;----------------------------------------------------------------------
     148                    ;  28 | float f, DPS = G->FS;                                                  
     149                    ;----------------------------------------------------------------------
     150 00000008 9800              LDR       A1, [SP, #0]          ; [DPU_3_PIPE] |28|  ; [ORIG 16-BIT INS]
     151 0000000a 6AC0              LDR       A1, [A1, #44]         ; [DPU_3_PIPE] |28|  ; [ORIG 16-BIT INS]
     152 0000000c 9007              STR       A1, [SP, #28]         ; [DPU_3_PIPE] |28|  ; [ORIG 16-BIT INS]
     153                            .dwpsn  file "../gyro_f.c",line 29,column 2,is_stmt,isa 1
     154                    ;----------------------------------------------------------------------
     155                    ;  29 | valore = I2CReceive(GYRO_ADDR, STATUS_REG);                            
     156                    ;----------------------------------------------------------------------
     157 0000000e 2127              MOVS      A2, #39               ; [DPU_3_PIPE] |29|  ; [ORIG 16-BIT INS]
     158 00000010 206B              MOVS      A1, #107              ; [DPU_3_PIPE] |29|  ; [ORIG 16-BIT INS]
     159                    $C$DW$21        .dwtag  DW_TAG_TI_branch
     160                            .dwattr $C$DW$21, DW_AT_low_pc(0x00)
     161                            .dwattr $C$DW$21, DW_AT_name("I2CReceive")
     162                            .dwattr $C$DW$21, DW_AT_TI_call
     163 00000012 FFFEF7FF!         BL        I2CReceive            ; [DPU_3_PIPE] |29|  ; [KEEP 32-BIT INS]
     164                            ; CALL OCCURS {I2CReceive }      ; [] |29| 
     165 00000016 9001              STR       A1, [SP, #4]          ; [DPU_3_PIPE] |29|  ; [ORIG 16-BIT INS]
TI ARM Assembler PC v5.1.6 Wed Feb 10 23:08:23 2016

Tools Copyright (c) 1996-2014 Texas Instruments Incorporated
gyro_f.asm                                                           PAGE    4

     166                            .dwpsn  file "../gyro_f.c",line 30,column 2,is_stmt,isa 1
     167                    ;----------------------------------------------------------------------
     168                    ;  30 | if (valore != 0){                                                      
     169                    ;----------------------------------------------------------------------
     170 00000018 9801              LDR       A1, [SP, #4]          ; [DPU_3_PIPE] |30|  ; [ORIG 16-BIT INS]
     171 0000001a 2800              CMP       A1, #0                ; [DPU_3_PIPE] |30|  ; [ORIG 16-BIT INS]
     172 0000001c 8123F000          BEQ       ||$C$L5||             ; [DPU_3_PIPE] |30|  ; [KEEP 32-BIT INS]
     173                            ; BRANCHCC OCCURS {||$C$L5||}    ; [] |30| 
     174                    ;* --------------------------------------------------------------------------*
     175                            .dwpsn  file "../gyro_f.c",line 31,column 3,is_stmt,isa 1
     176                    ;----------------------------------------------------------------------
     177                    ;  31 | tempoDiReset++;                                                        
     178                    ;  32 | /// legge i dati da tutti i registri del giroscopio                    
     179                    ;  33 | /// stato = readI2C_N_Byte(OUT_X_L_M, 6, buff);                 /// com
     180                    ;     | pass                                                                   
     181                    ;----------------------------------------------------------------------
     182 00000020 49B5              LDR       A2, $C$CON1           ; [DPU_3_PIPE] |31|  ; [ORIG 16-BIT INS]
     183 00000022 6808              LDR       A1, [A2, #0]          ; [DPU_3_PIPE] |31|  ; [ORIG 16-BIT INS]
     184 00000024 1C40              ADDS      A1, A1, #1            ; [DPU_3_PIPE] |31|  ; [ORIG 16-BIT INS]
     185 00000026 6008              STR       A1, [A2, #0]          ; [DPU_3_PIPE] |31|  ; [ORIG 16-BIT INS]
     186                            .dwpsn  file "../gyro_f.c",line 34,column 3,is_stmt,isa 1
     187                    ;----------------------------------------------------------------------
     188                    ;  34 | if ((G->asseOn & Z_AXIS) == Z_AXIS){                                   
     189                    ;----------------------------------------------------------------------
     190 00000028 9800              LDR       A1, [SP, #0]          ; [DPU_3_PIPE] |34|  ; [ORIG 16-BIT INS]
     191 0000002a 7A00              LDRB      A1, [A1, #8]          ; [DPU_3_PIPE] |34|  ; [ORIG 16-BIT INS]
     192 0000002c 08C0              LSRS      A1, A1, #3            ; [DPU_3_PIPE] |34|  ; [ORIG 16-BIT INS]
     193 0000002e D37B              BCC       ||$C$L4||             ; [DPU_3_PIPE] |34|  ; [ORIG 16-BIT INS]
     194                            ; BRANCHCC OCCURS {||$C$L4||}    ; [] |34| 
     195                    ;* --------------------------------------------------------------------------*
     196                            .dwpsn  file "../gyro_f.c",line 35,column 4,is_stmt,isa 1
     197                    ;----------------------------------------------------------------------
     198                    ;  35 | I2CReceiveN(GYRO_ADDR, OUT_Z_L | MUL_READ , 2, buffer);                
     199                    ;----------------------------------------------------------------------
     200 00000030 206B              MOVS      A1, #107              ; [DPU_3_PIPE] |35|  ; [ORIG 16-BIT INS]
     201 00000032 21AC              MOVS      A2, #172              ; [DPU_3_PIPE] |35|  ; [ORIG 16-BIT INS]
     202 00000034 2202              MOVS      A3, #2                ; [DPU_3_PIPE] |35|  ; [ORIG 16-BIT INS]
     203 00000036 AB04              ADD       A4, SP, #16           ; [DPU_3_PIPE] |35|  ; [ORIG 16-BIT INS]
     204                    $C$DW$22        .dwtag  DW_TAG_TI_branch
     205                            .dwattr $C$DW$22, DW_AT_low_pc(0x00)
     206                            .dwattr $C$DW$22, DW_AT_name("I2CReceiveN")
     207                            .dwattr $C$DW$22, DW_AT_TI_call
     208 00000038 FFFEF7FF!         BL        I2CReceiveN           ; [DPU_3_PIPE] |35|  ; [KEEP 32-BIT INS]
     209                            ; CALL OCCURS {I2CReceiveN }     ; [] |35| 
     210                            .dwpsn  file "../gyro_f.c",line 36,column 4,is_stmt,isa 1
     211                    ;----------------------------------------------------------------------
     212                    ;  36 | z = (int16_t)((buffer[1]<< 8) + buffer[0]) - G->z0;                    
     213                    ;  37 | /// integrazione rettangolare: valore letto * fondo scala * intervallo
     214                    ;     | di tempo di integrazione                                               
     215                    ;  38 | /// posto a 10ms                                                       
     216                    ;----------------------------------------------------------------------
     217 0000003c 9900              LDR       A2, [SP, #0]          ; [DPU_3_PIPE] |36|  ; [ORIG 16-BIT INS]
     218 0000003e 2011F89D          LDRB      A3, [SP, #17]         ; [DPU_3_PIPE] |36|  ; [KEEP 32-BIT INS]
     219 00000042 0010F89D          LDRB      A1, [SP, #16]         ; [DPU_3_PIPE] |36|  ; [KEEP 32-BIT INS]
     220 00000046 1006F9B1          LDRSH     A2, [A2, #6]          ; [DPU_3_PIPE] |36|  ; [KEEP 32-BIT INS]
TI ARM Assembler PC v5.1.6 Wed Feb 10 23:08:23 2016

Tools Copyright (c) 1996-2014 Texas Instruments Incorporated
gyro_f.asm                                                           PAGE    5

     221 0000004a 2002EB00          ADD       A1, A1, A3, LSL #8    ; [DPU_3_PIPE] |36|  ; [KEEP 32-BIT INS]
     222 0000004e B200              SXTH      A1, A1                ; [DPU_3_PIPE] |36|  ; [ORIG 16-BIT INS]
     223 00000050 1A40              SUBS      A1, A1, A2            ; [DPU_3_PIPE] |36|  ; [ORIG 16-BIT INS]
     224 00000052 0008F8AD          STRH      A1, [SP, #8]          ; [DPU_3_PIPE] |36|  ; [KEEP 32-BIT INS]
     225                            .dwpsn  file "../gyro_f.c",line 39,column 4,is_stmt,isa 1
     226                    ;----------------------------------------------------------------------
     227                    ;  39 | f = z * DPS * G->kz;                                                   
     228                    ;----------------------------------------------------------------------
     229 00000056 0A07EDDD          VLDR.32   S1, [SP, #28]         ; [DPU_LIN_PIPE] |39|  ; [KEEP 32-BIT INS]
     230 0000005a 0008F9BD          LDRSH     A1, [SP, #8]          ; [DPU_3_PIPE] |39|  ; [KEEP 32-BIT INS]
     231 0000005e 0A10EE00          VMOV      S0, A1                ; [DPU_LIN_PIPE] |39|  ; [KEEP 32-BIT INS]
     232 00000062 9800              LDR       A1, [SP, #0]          ; [DPU_3_PIPE] |39|  ; [ORIG 16-BIT INS]
     233 00000064 1A0DED90          VLDR.32   S2, [A1, #52]         ; [DPU_LIN_PIPE] |39|  ; [KEEP 32-BIT INS]
     234 00000068 0AC0EEB8          VCVT.F32.S32 S0, S0             ; [DPU_LIN_PIPE] |39|  ; [KEEP 32-BIT INS]
     235 0000006c 0A80EE20          VMUL.F32  S0, S1, S0            ; [DPU_LIN_PIPE] |39|  ; [KEEP 32-BIT INS]
     236 00000070 0A00EE21          VMUL.F32  S0, S2, S0            ; [DPU_LIN_PIPE] |39|  ; [KEEP 32-BIT INS]
     237 00000074 0A06ED8D          VSTR.32   S0, [SP, #24]         ; [DPU_LIN_PIPE] |39|  ; [KEEP 32-BIT INS]
     238                            .dwpsn  file "../gyro_f.c",line 40,column 4,is_stmt,isa 1
     239                    ;----------------------------------------------------------------------
     240                    ;  40 | f *= G->tick;                                                          
     241                    ;----------------------------------------------------------------------
     242 00000078 0A06ED9D          VLDR.32   S0, [SP, #24]         ; [DPU_LIN_PIPE] |40|  ; [KEEP 32-BIT INS]
     243 0000007c 9800              LDR       A1, [SP, #0]          ; [DPU_3_PIPE] |40|  ; [ORIG 16-BIT INS]
     244 0000007e 0A0CEDD0          VLDR.32   S1, [A1, #48]         ; [DPU_LIN_PIPE] |40|  ; [KEEP 32-BIT INS]
     245 00000082 0A80EE20          VMUL.F32  S0, S1, S0            ; [DPU_LIN_PIPE] |40|  ; [KEEP 32-BIT INS]
     246 00000086 0A06ED8D          VSTR.32   S0, [SP, #24]         ; [DPU_LIN_PIPE] |40|  ; [KEEP 32-BIT INS]
     247                            .dwpsn  file "../gyro_f.c",line 41,column 4,is_stmt,isa 1
     248                    ;----------------------------------------------------------------------
     249                    ;  41 | G->yawF += f;                                                          
     250                    ;----------------------------------------------------------------------
     251 0000008a 0A06EDDD          VLDR.32   S1, [SP, #24]         ; [DPU_LIN_PIPE] |41|  ; [KEEP 32-BIT INS]
     252 0000008e 9800              LDR       A1, [SP, #0]          ; [DPU_3_PIPE] |41|  ; [ORIG 16-BIT INS]
     253 00000090 0A04ED90          VLDR.32   S0, [A1, #16]         ; [DPU_LIN_PIPE] |41|  ; [KEEP 32-BIT INS]
     254 00000094 0A80EE30          VADD.F32  S0, S1, S0            ; [DPU_LIN_PIPE] |41|  ; [KEEP 32-BIT INS]
     255 00000098 0A04ED80          VSTR.32   S0, [A1, #16]         ; [DPU_LIN_PIPE] |41|  ; [KEEP 32-BIT INS]
     256                            .dwpsn  file "../gyro_f.c",line 43,column 4,is_stmt,isa 1
     257                    ;----------------------------------------------------------------------
     258                    ;  43 | if (tempoDiReset >= 1000){                                             
     259                    ;  44 |         /// sono passati 5 secondi e dovrebbe ricalcolare l'offset degl
     260                    ;     | i assi                                                                 
     261                    ;  45 |         /// dovrebbe calcolare se G->yawF è cambiato di almeno 1 grado
     262                    ;     | rispetto ai 5 secondi precedenti                                       
     263                    ;  46 |         /// se non è cmbiato dovrebbe azzerare la parte frazionaria    
     264                    ;----------------------------------------------------------------------
     265 0000009c 4896              LDR       A1, $C$CON1           ; [DPU_3_PIPE] |43|  ; [ORIG 16-BIT INS]
     266 0000009e 6800              LDR       A1, [A1, #0]          ; [DPU_3_PIPE] |43|  ; [ORIG 16-BIT INS]
     267 000000a0 7F7AF5B0          CMP       A1, #1000             ; [DPU_3_PIPE] |43|  ; [KEEP 32-BIT INS]
     268 000000a4 D337              BCC       ||$C$L3||             ; [DPU_3_PIPE] |43|  ; [ORIG 16-BIT INS]
     269                            ; BRANCHCC OCCURS {||$C$L3||}    ; [] |43| 
     270                    ;* --------------------------------------------------------------------------*
     271                            .dwpsn  file "../gyro_f.c",line 47,column 5,is_stmt,isa 1
     272                    ;----------------------------------------------------------------------
     273                    ;  47 | if ((G->yawF - G->yawP < 1.0) && (G->yawF - G->yawP > -1.0)){          
     274                    ;  48 |         /// dopo 5 secondi non ho avuto variazioni significative e quin
     275                    ;     | di ho integrato l'errore del                                           
TI ARM Assembler PC v5.1.6 Wed Feb 10 23:08:23 2016

Tools Copyright (c) 1996-2014 Texas Instruments Incorporated
gyro_f.asm                                                           PAGE    6

     276                    ;  49 |         /// sensore                                                    
     277                    ;----------------------------------------------------------------------
     278 000000a6 9800              LDR       A1, [SP, #0]          ; [DPU_3_PIPE] |47|  ; [ORIG 16-BIT INS]
     279 000000a8 0A07ED90          VLDR.32   S0, [A1, #28]         ; [DPU_LIN_PIPE] |47|  ; [KEEP 32-BIT INS]
     280 000000ac 9800              LDR       A1, [SP, #0]          ; [DPU_3_PIPE] |47|  ; [ORIG 16-BIT INS]
     281 000000ae 0A04EDD0          VLDR.32   S1, [A1, #16]         ; [DPU_LIN_PIPE] |47|  ; [KEEP 32-BIT INS]
     282 000000b2 0AC0EE30          VSUB.F32  S0, S1, S0            ; [DPU_LIN_PIPE] |47|  ; [KEEP 32-BIT INS]
     283 000000b6 0A00EEF7          VMOV.F32  S1, #1.00000000000000000000e+00 ; [DPU_LIN_PIPE] |47|  ; [KEEP 32-BIT INS]
     284 000000ba 0AE0EEB4          VCMPE.F32 S0, S1                ; [DPU_LIN_PIPE] |47|  ; [KEEP 32-BIT INS]
     285 000000be FA10EEF1          VMRS APSR_nzcv, FPSCR ; [DPU_LIN_PIPE] |47|  ; [KEEP 32-BIT INS]
     286 000000c2 D213              BCS       ||$C$L1||             ; [DPU_3_PIPE] |47|  ; [ORIG 16-BIT INS]
     287                            ; BRANCHCC OCCURS {||$C$L1||}    ; [] |47| 
     288                    ;* --------------------------------------------------------------------------*
     289 000000c4 9800              LDR       A1, [SP, #0]          ; [DPU_3_PIPE] |47|  ; [ORIG 16-BIT INS]
     290 000000c6 0A07ED90          VLDR.32   S0, [A1, #28]         ; [DPU_LIN_PIPE] |47|  ; [KEEP 32-BIT INS]
     291 000000ca 9800              LDR       A1, [SP, #0]          ; [DPU_3_PIPE] |47|  ; [ORIG 16-BIT INS]
     292 000000cc 0A04EDD0          VLDR.32   S1, [A1, #16]         ; [DPU_LIN_PIPE] |47|  ; [KEEP 32-BIT INS]
     293 000000d0 0AC0EE30          VSUB.F32  S0, S1, S0            ; [DPU_LIN_PIPE] |47|  ; [KEEP 32-BIT INS]
     294 000000d4 0A00EEFF          VMOV.F32  S1, #-1.00000000000000000000e+00 ; [DPU_LIN_PIPE] |47|  ; [KEEP 32-BIT INS]
     295 000000d8 0AE0EEB4          VCMPE.F32 S0, S1                ; [DPU_LIN_PIPE] |47|  ; [KEEP 32-BIT INS]
     296 000000dc FA10EEF1          VMRS APSR_nzcv, FPSCR ; [DPU_LIN_PIPE] |47|  ; [KEEP 32-BIT INS]
     297 000000e0 DD04              BLE       ||$C$L1||             ; [DPU_3_PIPE] |47|  ; [ORIG 16-BIT INS]
     298                            ; BRANCHCC OCCURS {||$C$L1||}    ; [] |47| 
     299                    ;* --------------------------------------------------------------------------*
     300                            .dwpsn  file "../gyro_f.c",line 50,column 6,is_stmt,isa 1
     301                    ;----------------------------------------------------------------------
     302                    ;  50 | G->yawF = G->yawP;                                                     
     303                    ;----------------------------------------------------------------------
     304 000000e2 9800              LDR       A1, [SP, #0]          ; [DPU_3_PIPE] |50|  ; [ORIG 16-BIT INS]
     305 000000e4 9900              LDR       A2, [SP, #0]          ; [DPU_3_PIPE] |50|  ; [ORIG 16-BIT INS]
     306 000000e6 69C0              LDR       A1, [A1, #28]         ; [DPU_3_PIPE] |50|  ; [ORIG 16-BIT INS]
     307 000000e8 6108              STR       A1, [A2, #16]         ; [DPU_3_PIPE] |50|  ; [ORIG 16-BIT INS]
     308                            .dwpsn  file "../gyro_f.c",line 51,column 5,is_stmt,isa 1
     309                    ;----------------------------------------------------------------------
     310                    ;  52 | else{                                                                  
     311                    ;----------------------------------------------------------------------
     312 000000ea E011              B         ||$C$L2||             ; [DPU_3_PIPE] |51|  ; [ORIG 16-BIT INS]
     313                            ; BRANCH OCCURS {||$C$L2||}      ; [] |51| 
     314                    ;* --------------------------------------------------------------------------*
     315 000000ec           ||$C$L1||:    
     316                            .dwpsn  file "../gyro_f.c",line 53,column 6,is_stmt,isa 1
     317                    ;----------------------------------------------------------------------
     318                    ;  53 | tmp = (int16_t)G->yawF;                                                
     319                    ;----------------------------------------------------------------------
     320 000000ec 9800              LDR       A1, [SP, #0]          ; [DPU_3_PIPE] |53|  ; [ORIG 16-BIT INS]
     321 000000ee 0A04ED90          VLDR.32   S0, [A1, #16]         ; [DPU_LIN_PIPE] |53|  ; [KEEP 32-BIT INS]
     322 000000f2 0AC0EEBD          VCVT.S32.F32 S0, S0             ; [DPU_LIN_PIPE] |53|  ; [KEEP 32-BIT INS]
     323 000000f6 0A10EE10          VMOV      A1, S0                ; [DPU_LIN_PIPE] |53|  ; [KEEP 32-BIT INS]
     324 000000fa 000EF8AD          STRH      A1, [SP, #14]         ; [DPU_3_PIPE] |53|  ; [KEEP 32-BIT INS]
     325                            .dwpsn  file "../gyro_f.c",line 54,column 6,is_stmt,isa 1
     326                    ;----------------------------------------------------------------------
     327                    ;  54 | G->yawP = (float) tmp;                                                 
     328                    ;----------------------------------------------------------------------
     329 000000fe 000EF9BD          LDRSH     A1, [SP, #14]         ; [DPU_3_PIPE] |54|  ; [KEEP 32-BIT INS]
     330 00000102 0A10EE00          VMOV      S0, A1                ; [DPU_LIN_PIPE] |54|  ; [KEEP 32-BIT INS]
TI ARM Assembler PC v5.1.6 Wed Feb 10 23:08:23 2016

Tools Copyright (c) 1996-2014 Texas Instruments Incorporated
gyro_f.asm                                                           PAGE    7

     331 00000106 9800              LDR       A1, [SP, #0]          ; [DPU_3_PIPE] |54|  ; [ORIG 16-BIT INS]
     332 00000108 0AC0EEB8          VCVT.F32.S32 S0, S0             ; [DPU_LIN_PIPE] |54|  ; [KEEP 32-BIT INS]
     333 0000010c 0A07ED80          VSTR.32   S0, [A1, #28]         ; [DPU_LIN_PIPE] |54|  ; [KEEP 32-BIT INS]
     334                    ;* --------------------------------------------------------------------------*
     335 00000110           ||$C$L2||:    
     336                            .dwpsn  file "../gyro_f.c",line 56,column 5,is_stmt,isa 1
     337                    ;----------------------------------------------------------------------
     338                    ;  56 | tempoDiReset = 0;                                                      
     339                    ;  58 | /// riporta il valore ad intero                                        
     340                    ;----------------------------------------------------------------------
     341 00000110 4979              LDR       A2, $C$CON1           ; [DPU_3_PIPE] |56|  ; [ORIG 16-BIT INS]
     342 00000112 2000              MOVS      A1, #0                ; [DPU_3_PIPE] |56|  ; [ORIG 16-BIT INS]
     343 00000114 6008              STR       A1, [A2, #0]          ; [DPU_3_PIPE] |56|  ; [ORIG 16-BIT INS]
     344                    ;* --------------------------------------------------------------------------*
     345 00000116           ||$C$L3||:    
     346                            .dwpsn  file "../gyro_f.c",line 59,column 4,is_stmt,isa 1
     347                    ;----------------------------------------------------------------------
     348                    ;  59 | G->yaw = (int16_t) G->yawF;                                            
     349                    ;----------------------------------------------------------------------
     350 00000116 9800              LDR       A1, [SP, #0]          ; [DPU_3_PIPE] |59|  ; [ORIG 16-BIT INS]
     351 00000118 0A04ED90          VLDR.32   S0, [A1, #16]         ; [DPU_LIN_PIPE] |59|  ; [KEEP 32-BIT INS]
     352 0000011c 0AC0EEBD          VCVT.S32.F32 S0, S0             ; [DPU_LIN_PIPE] |59|  ; [KEEP 32-BIT INS]
     353 00000120 9900              LDR       A2, [SP, #0]          ; [DPU_3_PIPE] |59|  ; [ORIG 16-BIT INS]
     354 00000122 0A10EE10          VMOV      A1, S0                ; [DPU_LIN_PIPE] |59|  ; [KEEP 32-BIT INS]
     355 00000126 8148              STRH      A1, [A2, #10]         ; [DPU_3_PIPE] |59|  ; [ORIG 16-BIT INS]
     356                    ;* --------------------------------------------------------------------------*
     357 00000128           ||$C$L4||:    
     358                            .dwpsn  file "../gyro_f.c",line 62,column 3,is_stmt,isa 1
     359                    ;----------------------------------------------------------------------
     360                    ;  62 | if((G->asseOn & ALL_AXIS) == ALL_AXIS){                                
     361                    ;----------------------------------------------------------------------
     362 00000128 9800              LDR       A1, [SP, #0]          ; [DPU_3_PIPE] |62|  ; [ORIG 16-BIT INS]
     363 0000012a 7A00              LDRB      A1, [A1, #8]          ; [DPU_3_PIPE] |62|  ; [ORIG 16-BIT INS]
     364 0000012c 0007F000          AND       A1, A1, #7            ; [DPU_3_PIPE] |62|  ; [KEEP 32-BIT INS]
     365 00000130 2807              CMP       A1, #7                ; [DPU_3_PIPE] |62|  ; [ORIG 16-BIT INS]
     366 00000132 80DFF040          BNE       ||$C$L6||             ; [DPU_3_PIPE] |62|  ; [KEEP 32-BIT INS]
     367                            ; BRANCHCC OCCURS {||$C$L6||}    ; [] |62| 
     368                    ;* --------------------------------------------------------------------------*
     369                            .dwpsn  file "../gyro_f.c",line 63,column 4,is_stmt,isa 1
     370                    ;----------------------------------------------------------------------
     371                    ;  63 | I2CReceiveN(GYRO_ADDR, OUT_X_L | MUL_READ , 6, buffer);                
     372                    ;----------------------------------------------------------------------
     373 00000136 206B              MOVS      A1, #107              ; [DPU_3_PIPE] |63|  ; [ORIG 16-BIT INS]
     374 00000138 21A8              MOVS      A2, #168              ; [DPU_3_PIPE] |63|  ; [ORIG 16-BIT INS]
     375 0000013a 2206              MOVS      A3, #6                ; [DPU_3_PIPE] |63|  ; [ORIG 16-BIT INS]
     376 0000013c AB04              ADD       A4, SP, #16           ; [DPU_3_PIPE] |63|  ; [ORIG 16-BIT INS]
     377                    $C$DW$23        .dwtag  DW_TAG_TI_branch
     378                            .dwattr $C$DW$23, DW_AT_low_pc(0x00)
     379                            .dwattr $C$DW$23, DW_AT_name("I2CReceiveN")
     380                            .dwattr $C$DW$23, DW_AT_TI_call
     381 0000013e FFFEF7FF!         BL        I2CReceiveN           ; [DPU_3_PIPE] |63|  ; [KEEP 32-BIT INS]
     382                            ; CALL OCCURS {I2CReceiveN }     ; [] |63| 
     383                            .dwpsn  file "../gyro_f.c",line 64,column 4,is_stmt,isa 1
     384                    ;----------------------------------------------------------------------
     385                    ;  64 | x = (int16_t)((buffer[1]<< 8) + buffer[0]) - G->x0;                    
TI ARM Assembler PC v5.1.6 Wed Feb 10 23:08:23 2016

Tools Copyright (c) 1996-2014 Texas Instruments Incorporated
gyro_f.asm                                                           PAGE    8

     386                    ;----------------------------------------------------------------------
     387 00000142 9900              LDR       A2, [SP, #0]          ; [DPU_3_PIPE] |64|  ; [ORIG 16-BIT INS]
     388 00000144 2011F89D          LDRB      A3, [SP, #17]         ; [DPU_3_PIPE] |64|  ; [KEEP 32-BIT INS]
     389 00000148 0010F89D          LDRB      A1, [SP, #16]         ; [DPU_3_PIPE] |64|  ; [KEEP 32-BIT INS]
     390 0000014c 1002F9B1          LDRSH     A2, [A2, #2]          ; [DPU_3_PIPE] |64|  ; [KEEP 32-BIT INS]
     391 00000150 2002EB00          ADD       A1, A1, A3, LSL #8    ; [DPU_3_PIPE] |64|  ; [KEEP 32-BIT INS]
     392 00000154 B200              SXTH      A1, A1                ; [DPU_3_PIPE] |64|  ; [ORIG 16-BIT INS]
     393 00000156 1A40              SUBS      A1, A1, A2            ; [DPU_3_PIPE] |64|  ; [ORIG 16-BIT INS]
     394 00000158 000AF8AD          STRH      A1, [SP, #10]         ; [DPU_3_PIPE] |64|  ; [KEEP 32-BIT INS]
     395                            .dwpsn  file "../gyro_f.c",line 65,column 4,is_stmt,isa 1
     396                    ;----------------------------------------------------------------------
     397                    ;  65 | y = (int)((buffer[3]<< 8) + buffer[2]) - G->y0;                        
     398                    ;----------------------------------------------------------------------
     399 0000015c 9900              LDR       A2, [SP, #0]          ; [DPU_3_PIPE] |65|  ; [ORIG 16-BIT INS]
     400 0000015e 0012F89D          LDRB      A1, [SP, #18]         ; [DPU_3_PIPE] |65|  ; [KEEP 32-BIT INS]
     401 00000162 2013F89D          LDRB      A3, [SP, #19]         ; [DPU_3_PIPE] |65|  ; [KEEP 32-BIT INS]
     402 00000166 1004F9B1          LDRSH     A2, [A2, #4]          ; [DPU_3_PIPE] |65|  ; [KEEP 32-BIT INS]
     403 0000016a 2002EB00          ADD       A1, A1, A3, LSL #8    ; [DPU_3_PIPE] |65|  ; [KEEP 32-BIT INS]
     404 0000016e 1A40              SUBS      A1, A1, A2            ; [DPU_3_PIPE] |65|  ; [ORIG 16-BIT INS]
     405 00000170 000CF8AD          STRH      A1, [SP, #12]         ; [DPU_3_PIPE] |65|  ; [KEEP 32-BIT INS]
     406                            .dwpsn  file "../gyro_f.c",line 66,column 4,is_stmt,isa 1
     407                    ;----------------------------------------------------------------------
     408                    ;  66 | z = (int)((buffer[5]<< 8) + buffer[4]) - G->z0;                        
     409                    ;  67 | /// integrazione rettangolare: valore letto * fondo scala * intervallo
     410                    ;     | di tempo di integrazione                                               
     411                    ;  68 | /// posto a 10ms                                                       
     412                    ;----------------------------------------------------------------------
     413 00000174 9900              LDR       A2, [SP, #0]          ; [DPU_3_PIPE] |66|  ; [ORIG 16-BIT INS]
     414 00000176 0014F89D          LDRB      A1, [SP, #20]         ; [DPU_3_PIPE] |66|  ; [KEEP 32-BIT INS]
     415 0000017a 2015F89D          LDRB      A3, [SP, #21]         ; [DPU_3_PIPE] |66|  ; [KEEP 32-BIT INS]
     416 0000017e 1006F9B1          LDRSH     A2, [A2, #6]          ; [DPU_3_PIPE] |66|  ; [KEEP 32-BIT INS]
     417 00000182 2002EB00          ADD       A1, A1, A3, LSL #8    ; [DPU_3_PIPE] |66|  ; [KEEP 32-BIT INS]
     418 00000186 1A40              SUBS      A1, A1, A2            ; [DPU_3_PIPE] |66|  ; [ORIG 16-BIT INS]
     419 00000188 0008F8AD          STRH      A1, [SP, #8]          ; [DPU_3_PIPE] |66|  ; [KEEP 32-BIT INS]
     420                            .dwpsn  file "../gyro_f.c",line 69,column 4,is_stmt,isa 1
     421                    ;----------------------------------------------------------------------
     422                    ;  69 | f = z * DPS;                                                           
     423                    ;----------------------------------------------------------------------
     424 0000018c 0A07EDDD          VLDR.32   S1, [SP, #28]         ; [DPU_LIN_PIPE] |69|  ; [KEEP 32-BIT INS]
     425 00000190 0008F9BD          LDRSH     A1, [SP, #8]          ; [DPU_3_PIPE] |69|  ; [KEEP 32-BIT INS]
     426 00000194 0A10EE00          VMOV      S0, A1                ; [DPU_LIN_PIPE] |69|  ; [KEEP 32-BIT INS]
     427 00000198 0AC0EEB8          VCVT.F32.S32 S0, S0             ; [DPU_LIN_PIPE] |69|  ; [KEEP 32-BIT INS]
     428 0000019c 0A80EE20          VMUL.F32  S0, S1, S0            ; [DPU_LIN_PIPE] |69|  ; [KEEP 32-BIT INS]
     429 000001a0 0A06ED8D          VSTR.32   S0, [SP, #24]         ; [DPU_LIN_PIPE] |69|  ; [KEEP 32-BIT INS]
     430                            .dwpsn  file "../gyro_f.c",line 70,column 4,is_stmt,isa 1
     431                    ;----------------------------------------------------------------------
     432                    ;  70 | G->yawF = f;                                                           
     433                    ;----------------------------------------------------------------------
     434 000001a4 9900              LDR       A2, [SP, #0]          ; [DPU_3_PIPE] |70|  ; [ORIG 16-BIT INS]
     435 000001a6 9806              LDR       A1, [SP, #24]         ; [DPU_3_PIPE] |70|  ; [ORIG 16-BIT INS]
     436 000001a8 6108              STR       A1, [A2, #16]         ; [DPU_3_PIPE] |70|  ; [ORIG 16-BIT INS]
     437                            .dwpsn  file "../gyro_f.c",line 71,column 4,is_stmt,isa 1
     438                    ;----------------------------------------------------------------------
     439                    ;  71 | f *= G->tick;                                                          
     440                    ;  72 | /// riporta il valore ad intero                                        
TI ARM Assembler PC v5.1.6 Wed Feb 10 23:08:23 2016

Tools Copyright (c) 1996-2014 Texas Instruments Incorporated
gyro_f.asm                                                           PAGE    9

     441                    ;----------------------------------------------------------------------
     442 000001aa 0A06ED9D          VLDR.32   S0, [SP, #24]         ; [DPU_LIN_PIPE] |71|  ; [KEEP 32-BIT INS]
     443 000001ae 9800              LDR       A1, [SP, #0]          ; [DPU_3_PIPE] |71|  ; [ORIG 16-BIT INS]
     444 000001b0 0A0CEDD0          VLDR.32   S1, [A1, #48]         ; [DPU_LIN_PIPE] |71|  ; [KEEP 32-BIT INS]
     445 000001b4 0A80EE20          VMUL.F32  S0, S1, S0            ; [DPU_LIN_PIPE] |71|  ; [KEEP 32-BIT INS]
     446 000001b8 0A06ED8D          VSTR.32   S0, [SP, #24]         ; [DPU_LIN_PIPE] |71|  ; [KEEP 32-BIT INS]
     447                            .dwpsn  file "../gyro_f.c",line 73,column 4,is_stmt,isa 1
     448                    ;----------------------------------------------------------------------
     449                    ;  73 | G->yaw += (int16_t) f;                                                 
     450                    ;----------------------------------------------------------------------
     451 000001bc 0A06ED9D          VLDR.32   S0, [SP, #24]         ; [DPU_LIN_PIPE] |73|  ; [KEEP 32-BIT INS]
     452 000001c0 9900              LDR       A2, [SP, #0]          ; [DPU_3_PIPE] |73|  ; [ORIG 16-BIT INS]
     453 000001c2 0AC0EEBD          VCVT.S32.F32 S0, S0             ; [DPU_LIN_PIPE] |73|  ; [KEEP 32-BIT INS]
     454 000001c6 200AF9B1          LDRSH     A3, [A2, #10]         ; [DPU_3_PIPE] |73|  ; [KEEP 32-BIT INS]
     455 000001ca 0A10EE10          VMOV      A1, S0                ; [DPU_LIN_PIPE] |73|  ; [KEEP 32-BIT INS]
     456 000001ce B200              SXTH      A1, A1                ; [DPU_3_PIPE] |73|  ; [ORIG 16-BIT INS]
     457 000001d0 1880              ADDS      A1, A1, A3            ; [DPU_3_PIPE] |73|  ; [ORIG 16-BIT INS]
     458 000001d2 8148              STRH      A1, [A2, #10]         ; [DPU_3_PIPE] |73|  ; [ORIG 16-BIT INS]
     459                            .dwpsn  file "../gyro_f.c",line 74,column 4,is_stmt,isa 1
     460                    ;----------------------------------------------------------------------
     461                    ;  74 | f = y * DPS;                                                           
     462                    ;----------------------------------------------------------------------
     463 000001d4 0A07EDDD          VLDR.32   S1, [SP, #28]         ; [DPU_LIN_PIPE] |74|  ; [KEEP 32-BIT INS]
     464 000001d8 000CF9BD          LDRSH     A1, [SP, #12]         ; [DPU_3_PIPE] |74|  ; [KEEP 32-BIT INS]
     465 000001dc 0A10EE00          VMOV      S0, A1                ; [DPU_LIN_PIPE] |74|  ; [KEEP 32-BIT INS]
     466 000001e0 0AC0EEB8          VCVT.F32.S32 S0, S0             ; [DPU_LIN_PIPE] |74|  ; [KEEP 32-BIT INS]
     467 000001e4 0A80EE20          VMUL.F32  S0, S1, S0            ; [DPU_LIN_PIPE] |74|  ; [KEEP 32-BIT INS]
     468 000001e8 0A06ED8D          VSTR.32   S0, [SP, #24]         ; [DPU_LIN_PIPE] |74|  ; [KEEP 32-BIT INS]
     469                            .dwpsn  file "../gyro_f.c",line 75,column 4,is_stmt,isa 1
     470                    ;----------------------------------------------------------------------
     471                    ;  75 | G->rollF = f;                                                          
     472                    ;----------------------------------------------------------------------
     473 000001ec 9900              LDR       A2, [SP, #0]          ; [DPU_3_PIPE] |75|  ; [ORIG 16-BIT INS]
     474 000001ee 9806              LDR       A1, [SP, #24]         ; [DPU_3_PIPE] |75|  ; [ORIG 16-BIT INS]
     475 000001f0 6148              STR       A1, [A2, #20]         ; [DPU_3_PIPE] |75|  ; [ORIG 16-BIT INS]
     476                            .dwpsn  file "../gyro_f.c",line 76,column 4,is_stmt,isa 1
     477                    ;----------------------------------------------------------------------
     478                    ;  76 | f *= G->tick;                                                          
     479                    ;  77 | /// riporta il valore ad intero                                        
     480                    ;----------------------------------------------------------------------
     481 000001f2 0A06ED9D          VLDR.32   S0, [SP, #24]         ; [DPU_LIN_PIPE] |76|  ; [KEEP 32-BIT INS]
     482 000001f6 9800              LDR       A1, [SP, #0]          ; [DPU_3_PIPE] |76|  ; [ORIG 16-BIT INS]
     483 000001f8 0A0CEDD0          VLDR.32   S1, [A1, #48]         ; [DPU_LIN_PIPE] |76|  ; [KEEP 32-BIT INS]
     484 000001fc 0A80EE20          VMUL.F32  S0, S1, S0            ; [DPU_LIN_PIPE] |76|  ; [KEEP 32-BIT INS]
     485 00000200 0A06ED8D          VSTR.32   S0, [SP, #24]         ; [DPU_LIN_PIPE] |76|  ; [KEEP 32-BIT INS]
     486                            .dwpsn  file "../gyro_f.c",line 78,column 4,is_stmt,isa 1
     487                    ;----------------------------------------------------------------------
     488                    ;  78 | G->roll += (int16_t)f;                                                 
     489                    ;----------------------------------------------------------------------
     490 00000204 0A06ED9D          VLDR.32   S0, [SP, #24]         ; [DPU_LIN_PIPE] |78|  ; [KEEP 32-BIT INS]
     491 00000208 9900              LDR       A2, [SP, #0]          ; [DPU_3_PIPE] |78|  ; [ORIG 16-BIT INS]
     492 0000020a 0AC0EEBD          VCVT.S32.F32 S0, S0             ; [DPU_LIN_PIPE] |78|  ; [KEEP 32-BIT INS]
     493 0000020e 200CF9B1          LDRSH     A3, [A2, #12]         ; [DPU_3_PIPE] |78|  ; [KEEP 32-BIT INS]
     494 00000212 0A10EE10          VMOV      A1, S0                ; [DPU_LIN_PIPE] |78|  ; [KEEP 32-BIT INS]
     495 00000216 B200              SXTH      A1, A1                ; [DPU_3_PIPE] |78|  ; [ORIG 16-BIT INS]
TI ARM Assembler PC v5.1.6 Wed Feb 10 23:08:23 2016

Tools Copyright (c) 1996-2014 Texas Instruments Incorporated
gyro_f.asm                                                           PAGE   10

     496 00000218 1880              ADDS      A1, A1, A3            ; [DPU_3_PIPE] |78|  ; [ORIG 16-BIT INS]
     497 0000021a 8188              STRH      A1, [A2, #12]         ; [DPU_3_PIPE] |78|  ; [ORIG 16-BIT INS]
     498                            .dwpsn  file "../gyro_f.c",line 79,column 4,is_stmt,isa 1
     499                    ;----------------------------------------------------------------------
     500                    ;  79 | f = x * DPS;                                                           
     501                    ;----------------------------------------------------------------------
     502 0000021c 0A07EDDD          VLDR.32   S1, [SP, #28]         ; [DPU_LIN_PIPE] |79|  ; [KEEP 32-BIT INS]
     503 00000220 000AF9BD          LDRSH     A1, [SP, #10]         ; [DPU_3_PIPE] |79|  ; [KEEP 32-BIT INS]
     504 00000224 0A10EE00          VMOV      S0, A1                ; [DPU_LIN_PIPE] |79|  ; [KEEP 32-BIT INS]
     505 00000228 0AC0EEB8          VCVT.F32.S32 S0, S0             ; [DPU_LIN_PIPE] |79|  ; [KEEP 32-BIT INS]
     506 0000022c 0A80EE20          VMUL.F32  S0, S1, S0            ; [DPU_LIN_PIPE] |79|  ; [KEEP 32-BIT INS]
     507 00000230 0A06ED8D          VSTR.32   S0, [SP, #24]         ; [DPU_LIN_PIPE] |79|  ; [KEEP 32-BIT INS]
     508                            .dwpsn  file "../gyro_f.c",line 80,column 4,is_stmt,isa 1
     509                    ;----------------------------------------------------------------------
     510                    ;  80 | G->pitchF = f;                                                         
     511                    ;----------------------------------------------------------------------
     512 00000234 9900              LDR       A2, [SP, #0]          ; [DPU_3_PIPE] |80|  ; [ORIG 16-BIT INS]
     513 00000236 9806              LDR       A1, [SP, #24]         ; [DPU_3_PIPE] |80|  ; [ORIG 16-BIT INS]
     514 00000238 6188              STR       A1, [A2, #24]         ; [DPU_3_PIPE] |80|  ; [ORIG 16-BIT INS]
     515                            .dwpsn  file "../gyro_f.c",line 81,column 4,is_stmt,isa 1
     516                    ;----------------------------------------------------------------------
     517                    ;  81 | f *= G->tick;                                                          
     518                    ;  82 | /// riporta il valore ad intero                                        
     519                    ;----------------------------------------------------------------------
     520 0000023a 0A06ED9D          VLDR.32   S0, [SP, #24]         ; [DPU_LIN_PIPE] |81|  ; [KEEP 32-BIT INS]
     521 0000023e 9800              LDR       A1, [SP, #0]          ; [DPU_3_PIPE] |81|  ; [ORIG 16-BIT INS]
     522 00000240 0A0CEDD0          VLDR.32   S1, [A1, #48]         ; [DPU_LIN_PIPE] |81|  ; [KEEP 32-BIT INS]
     523 00000244 0A80EE20          VMUL.F32  S0, S1, S0            ; [DPU_LIN_PIPE] |81|  ; [KEEP 32-BIT INS]
     524 00000248 0A06ED8D          VSTR.32   S0, [SP, #24]         ; [DPU_LIN_PIPE] |81|  ; [KEEP 32-BIT INS]
     525                            .dwpsn  file "../gyro_f.c",line 83,column 4,is_stmt,isa 1
     526                    ;----------------------------------------------------------------------
     527                    ;  83 | G->pitch += (int16_t) f;                                               
     528                    ;  84 | //valore = readI2CByteFromAddress(STATUS_REG, &stato);                 
     529                    ;----------------------------------------------------------------------
     530 0000024c 0A06ED9D          VLDR.32   S0, [SP, #24]         ; [DPU_LIN_PIPE] |83|  ; [KEEP 32-BIT INS]
     531 00000250 9900              LDR       A2, [SP, #0]          ; [DPU_3_PIPE] |83|  ; [ORIG 16-BIT INS]
     532 00000252 0AC0EEBD          VCVT.S32.F32 S0, S0             ; [DPU_LIN_PIPE] |83|  ; [KEEP 32-BIT INS]
     533 00000256 200EF9B1          LDRSH     A3, [A2, #14]         ; [DPU_3_PIPE] |83|  ; [KEEP 32-BIT INS]
     534 0000025a 0A10EE10          VMOV      A1, S0                ; [DPU_LIN_PIPE] |83|  ; [KEEP 32-BIT INS]
     535 0000025e B200              SXTH      A1, A1                ; [DPU_3_PIPE] |83|  ; [ORIG 16-BIT INS]
     536 00000260 1880              ADDS      A1, A1, A3            ; [DPU_3_PIPE] |83|  ; [ORIG 16-BIT INS]
     537 00000262 81C8              STRH      A1, [A2, #14]         ; [DPU_3_PIPE] |83|  ; [ORIG 16-BIT INS]
     538                            .dwpsn  file "../gyro_f.c",line 90,column 2,is_stmt,isa 1
     539                    ;----------------------------------------------------------------------
     540                    ;  91 | else{                                                                  
     541                    ;  92 |         /// integra dal valore precedente con intervallo di tempo di 10
     542                    ;     | ms                                                                     
     543                    ;----------------------------------------------------------------------
     544 00000264 E046              B         ||$C$L6||             ; [DPU_3_PIPE] |90|  ; [ORIG 16-BIT INS]
     545                            ; BRANCH OCCURS {||$C$L6||}      ; [] |90| 
     546                    ;* --------------------------------------------------------------------------*
     547 00000266           ||$C$L5||:    
     548                            .dwpsn  file "../gyro_f.c",line 93,column 3,is_stmt,isa 1
     549                    ;----------------------------------------------------------------------
     550                    ;  93 | f = G->yawF * G->tick;                                                 
TI ARM Assembler PC v5.1.6 Wed Feb 10 23:08:23 2016

Tools Copyright (c) 1996-2014 Texas Instruments Incorporated
gyro_f.asm                                                           PAGE   11

     551                    ;----------------------------------------------------------------------
     552 00000266 9800              LDR       A1, [SP, #0]          ; [DPU_3_PIPE] |93|  ; [ORIG 16-BIT INS]
     553 00000268 0A04ED90          VLDR.32   S0, [A1, #16]         ; [DPU_LIN_PIPE] |93|  ; [KEEP 32-BIT INS]
     554 0000026c 9800              LDR       A1, [SP, #0]          ; [DPU_3_PIPE] |93|  ; [ORIG 16-BIT INS]
     555 0000026e 0A0CEDD0          VLDR.32   S1, [A1, #48]         ; [DPU_LIN_PIPE] |93|  ; [KEEP 32-BIT INS]
     556 00000272 0A80EE20          VMUL.F32  S0, S1, S0            ; [DPU_LIN_PIPE] |93|  ; [KEEP 32-BIT INS]
     557 00000276 0A06ED8D          VSTR.32   S0, [SP, #24]         ; [DPU_LIN_PIPE] |93|  ; [KEEP 32-BIT INS]
     558                            .dwpsn  file "../gyro_f.c",line 94,column 3,is_stmt,isa 1
     559                    ;----------------------------------------------------------------------
     560                    ;  94 | G->yaw += (uint16_t) f;                                                
     561                    ;----------------------------------------------------------------------
     562 0000027a 0A06ED9D          VLDR.32   S0, [SP, #24]         ; [DPU_LIN_PIPE] |94|  ; [KEEP 32-BIT INS]
     563 0000027e 9900              LDR       A2, [SP, #0]          ; [DPU_3_PIPE] |94|  ; [ORIG 16-BIT INS]
     564 00000280 0AC0EEBC          VCVT.U32.F32 S0, S0             ; [DPU_LIN_PIPE] |94|  ; [KEEP 32-BIT INS]
     565 00000284 200AF9B1          LDRSH     A3, [A2, #10]         ; [DPU_3_PIPE] |94|  ; [KEEP 32-BIT INS]
     566 00000288 0A10EE10          VMOV      A1, S0                ; [DPU_LIN_PIPE] |94|  ; [KEEP 32-BIT INS]
     567 0000028c B280              UXTH      A1, A1                ; [DPU_3_PIPE] |94|  ; [ORIG 16-BIT INS]
     568 0000028e 1880              ADDS      A1, A1, A3            ; [DPU_3_PIPE] |94|  ; [ORIG 16-BIT INS]
     569 00000290 8148              STRH      A1, [A2, #10]         ; [DPU_3_PIPE] |94|  ; [ORIG 16-BIT INS]
     570                            .dwpsn  file "../gyro_f.c",line 95,column 3,is_stmt,isa 1
     571                    ;----------------------------------------------------------------------
     572                    ;  95 | if ((G->asseOn & 0x3) != 0){                                           
     573                    ;  96 |         /// occorre integrare anche sugli assi X e Y                   
     574                    ;----------------------------------------------------------------------
     575 00000292 9800              LDR       A1, [SP, #0]          ; [DPU_3_PIPE] |95|  ; [ORIG 16-BIT INS]
     576 00000294 7A00              LDRB      A1, [A1, #8]          ; [DPU_3_PIPE] |95|  ; [ORIG 16-BIT INS]
     577 00000296 0F03F010          TST       A1, #3                ; [DPU_3_PIPE] |95|  ; [KEEP 32-BIT INS]
     578 0000029a D02B              BEQ       ||$C$L6||             ; [DPU_3_PIPE] |95|  ; [ORIG 16-BIT INS]
     579                            ; BRANCHCC OCCURS {||$C$L6||}    ; [] |95| 
     580                    ;* --------------------------------------------------------------------------*
     581                            .dwpsn  file "../gyro_f.c",line 97,column 4,is_stmt,isa 1
     582                    ;----------------------------------------------------------------------
     583                    ;  97 | f = G->rollF * G->tick;                                                
     584                    ;----------------------------------------------------------------------
     585 0000029c 9800              LDR       A1, [SP, #0]          ; [DPU_3_PIPE] |97|  ; [ORIG 16-BIT INS]
     586 0000029e 0A05ED90          VLDR.32   S0, [A1, #20]         ; [DPU_LIN_PIPE] |97|  ; [KEEP 32-BIT INS]
     587 000002a2 9800              LDR       A1, [SP, #0]          ; [DPU_3_PIPE] |97|  ; [ORIG 16-BIT INS]
     588 000002a4 0A0CEDD0          VLDR.32   S1, [A1, #48]         ; [DPU_LIN_PIPE] |97|  ; [KEEP 32-BIT INS]
     589 000002a8 0A80EE20          VMUL.F32  S0, S1, S0            ; [DPU_LIN_PIPE] |97|  ; [KEEP 32-BIT INS]
     590 000002ac 0A06ED8D          VSTR.32   S0, [SP, #24]         ; [DPU_LIN_PIPE] |97|  ; [KEEP 32-BIT INS]
     591                            .dwpsn  file "../gyro_f.c",line 98,column 4,is_stmt,isa 1
     592                    ;----------------------------------------------------------------------
     593                    ;  98 | G->roll += (uint16_t) f;                                               
     594                    ;----------------------------------------------------------------------
     595 000002b0 0A06ED9D          VLDR.32   S0, [SP, #24]         ; [DPU_LIN_PIPE] |98|  ; [KEEP 32-BIT INS]
     596 000002b4 9900              LDR       A2, [SP, #0]          ; [DPU_3_PIPE] |98|  ; [ORIG 16-BIT INS]
     597 000002b6 0AC0EEBC          VCVT.U32.F32 S0, S0             ; [DPU_LIN_PIPE] |98|  ; [KEEP 32-BIT INS]
     598 000002ba 200CF9B1          LDRSH     A3, [A2, #12]         ; [DPU_3_PIPE] |98|  ; [KEEP 32-BIT INS]
     599 000002be 0A10EE10          VMOV      A1, S0                ; [DPU_LIN_PIPE] |98|  ; [KEEP 32-BIT INS]
     600 000002c2 B280              UXTH      A1, A1                ; [DPU_3_PIPE] |98|  ; [ORIG 16-BIT INS]
     601 000002c4 1880              ADDS      A1, A1, A3            ; [DPU_3_PIPE] |98|  ; [ORIG 16-BIT INS]
     602 000002c6 8188              STRH      A1, [A2, #12]         ; [DPU_3_PIPE] |98|  ; [ORIG 16-BIT INS]
     603                            .dwpsn  file "../gyro_f.c",line 99,column 4,is_stmt,isa 1
     604                    ;----------------------------------------------------------------------
     605                    ;  99 | f = G->pitchF * G->tick;                                               
TI ARM Assembler PC v5.1.6 Wed Feb 10 23:08:23 2016

Tools Copyright (c) 1996-2014 Texas Instruments Incorporated
gyro_f.asm                                                           PAGE   12

     606                    ;----------------------------------------------------------------------
     607 000002c8 9800              LDR       A1, [SP, #0]          ; [DPU_3_PIPE] |99|  ; [ORIG 16-BIT INS]
     608 000002ca 0A06ED90          VLDR.32   S0, [A1, #24]         ; [DPU_LIN_PIPE] |99|  ; [KEEP 32-BIT INS]
     609 000002ce 9800              LDR       A1, [SP, #0]          ; [DPU_3_PIPE] |99|  ; [ORIG 16-BIT INS]
     610 000002d0 0A0CEDD0          VLDR.32   S1, [A1, #48]         ; [DPU_LIN_PIPE] |99|  ; [KEEP 32-BIT INS]
     611 000002d4 0A80EE20          VMUL.F32  S0, S1, S0            ; [DPU_LIN_PIPE] |99|  ; [KEEP 32-BIT INS]
     612 000002d8 0A06ED8D          VSTR.32   S0, [SP, #24]         ; [DPU_LIN_PIPE] |99|  ; [KEEP 32-BIT INS]
     613                            .dwpsn  file "../gyro_f.c",line 100,column 4,is_stmt,isa 1
     614                    ;----------------------------------------------------------------------
     615                    ; 100 | G->pitch += (uint16_t) f;                                              
     616                    ;----------------------------------------------------------------------
     617 000002dc 0A06ED9D          VLDR.32   S0, [SP, #24]         ; [DPU_LIN_PIPE] |100|  ; [KEEP 32-BIT INS]
     618 000002e0 9900              LDR       A2, [SP, #0]          ; [DPU_3_PIPE] |100|  ; [ORIG 16-BIT INS]
     619 000002e2 0AC0EEBC          VCVT.U32.F32 S0, S0             ; [DPU_LIN_PIPE] |100|  ; [KEEP 32-BIT INS]
     620 000002e6 200EF9B1          LDRSH     A3, [A2, #14]         ; [DPU_3_PIPE] |100|  ; [KEEP 32-BIT INS]
     621 000002ea 0A10EE10          VMOV      A1, S0                ; [DPU_LIN_PIPE] |100|  ; [KEEP 32-BIT INS]
     622 000002ee B280              UXTH      A1, A1                ; [DPU_3_PIPE] |100|  ; [ORIG 16-BIT INS]
     623 000002f0 1880              ADDS      A1, A1, A3            ; [DPU_3_PIPE] |100|  ; [ORIG 16-BIT INS]
     624 000002f2 81C8              STRH      A1, [A2, #14]         ; [DPU_3_PIPE] |100|  ; [ORIG 16-BIT INS]
     625                            .dwpsn  file "../gyro_f.c",line 103,column 1,is_stmt,isa 1
     626                    ;* --------------------------------------------------------------------------*
     627 000002f4           ||$C$L6||:    
     628 000002f4 B009              ADD       SP, SP, #36           ; [DPU_3_PIPE]  ; [ORIG 16-BIT INS]
     629                            .dwcfi  cfa_offset, 4
     630                    $C$DW$24        .dwtag  DW_TAG_TI_branch
     631                            .dwattr $C$DW$24, DW_AT_low_pc(0x00)
     632                            .dwattr $C$DW$24, DW_AT_TI_return
     633 000002f6 BD00              POP       {PC}                  ; [DPU_3_PIPE]  ; [ORIG 16-BIT INS]
     634                            .dwcfi  cfa_offset, 0
     635                            ; BRANCH OCCURS                  ; [] 
     636                            .dwattr $C$DW$9, DW_AT_TI_end_file("../gyro_f.c")
     637                            .dwattr $C$DW$9, DW_AT_TI_end_line(0x67)
     638                            .dwattr $C$DW$9, DW_AT_TI_end_column(0x01)
     639                            .dwendentry
     640                            .dwendtag $C$DW$9
     641                    
     642                    ;******************************************************************************
     643                    ;* CONSTANT TABLE                                                             *
     644                    ;******************************************************************************
     645 000002f8                   .sect   ".text"
     646                            .align  4
     647 000002f8 00000000! ||$C$CON1||:    .bits   tempoDiReset$1,32
     648                    ;*****************************************************************************
     649                    ;* UNDEFINED EXTERNAL REFERENCES                                             *
     650                    ;*****************************************************************************
     651                            .global I2CReceiveN
     652                            .global I2CReceive
     653                    
     654                    ;******************************************************************************
     655                    ;* BUILD ATTRIBUTES                                                           *
     656                    ;******************************************************************************
     657                            .battr "aeabi", Tag_File, 1, Tag_ABI_PCS_wchar_t(2)
     658                            .battr "aeabi", Tag_File, 1, Tag_ABI_FP_rounding(0)
     659                            .battr "aeabi", Tag_File, 1, Tag_ABI_FP_denormal(0)
     660                            .battr "aeabi", Tag_File, 1, Tag_ABI_FP_exceptions(0)
TI ARM Assembler PC v5.1.6 Wed Feb 10 23:08:23 2016

Tools Copyright (c) 1996-2014 Texas Instruments Incorporated
gyro_f.asm                                                           PAGE   13

     661                            .battr "aeabi", Tag_File, 1, Tag_ABI_FP_number_model(1)
     662                            .battr "aeabi", Tag_File, 1, Tag_ABI_enum_size(0)
     663                            .battr "aeabi", Tag_File, 1, Tag_ABI_optimization_goals(5)
     664                            .battr "aeabi", Tag_File, 1, Tag_ABI_FP_optimization_goals(0)
     665                            .battr "TI", Tag_File, 1, Tag_Bitfield_layout(2)
     666                            .battr "TI", Tag_File, 1, Tag_FP_interface(1)
     667                    
     668                    ;******************************************************************************
     669                    ;* TYPE INFORMATION                                                           *
     670                    ;******************************************************************************
     671                    
     672                    $C$DW$T$20      .dwtag  DW_TAG_union_type
     673                            .dwattr $C$DW$T$20, DW_AT_byte_size(0x10)
     674                    $C$DW$25        .dwtag  DW_TAG_member
     675                            .dwattr $C$DW$25, DW_AT_type(*$C$DW$T$19)
     676                            .dwattr $C$DW$25, DW_AT_name("_Word")
     677                            .dwattr $C$DW$25, DW_AT_TI_symbol_name("_Word")
     678                            .dwattr $C$DW$25, DW_AT_data_member_location[DW_OP_plus_uconst 0x0]
     679                            .dwattr $C$DW$25, DW_AT_accessibility(DW_ACCESS_public)
     680                            .dwattr $C$DW$25, DW_AT_decl_file("C:/ti6/ccsv6/tools/compiler/arm_5.1.6/include/ymath.h")
     681                            .dwattr $C$DW$25, DW_AT_decl_line(0x81)
     682                            .dwattr $C$DW$25, DW_AT_decl_column(0x11)
     683                    $C$DW$26        .dwtag  DW_TAG_member
     684                            .dwattr $C$DW$26, DW_AT_type(*$C$DW$T$16)
     685                            .dwattr $C$DW$26, DW_AT_name("_Float")
     686                            .dwattr $C$DW$26, DW_AT_TI_symbol_name("_Float")
     687                            .dwattr $C$DW$26, DW_AT_data_member_location[DW_OP_plus_uconst 0x0]
     688                            .dwattr $C$DW$26, DW_AT_accessibility(DW_ACCESS_public)
     689                            .dwattr $C$DW$26, DW_AT_decl_file("C:/ti6/ccsv6/tools/compiler/arm_5.1.6/include/ymath.h")
     690                            .dwattr $C$DW$26, DW_AT_decl_line(0x82)
     691                            .dwattr $C$DW$26, DW_AT_decl_column(0x08)
     692                    $C$DW$27        .dwtag  DW_TAG_member
     693                            .dwattr $C$DW$27, DW_AT_type(*$C$DW$T$17)
     694                            .dwattr $C$DW$27, DW_AT_name("_Double")
     695                            .dwattr $C$DW$27, DW_AT_TI_symbol_name("_Double")
     696                            .dwattr $C$DW$27, DW_AT_data_member_location[DW_OP_plus_uconst 0x0]
     697                            .dwattr $C$DW$27, DW_AT_accessibility(DW_ACCESS_public)
     698                            .dwattr $C$DW$27, DW_AT_decl_file("C:/ti6/ccsv6/tools/compiler/arm_5.1.6/include/ymath.h")
     699                            .dwattr $C$DW$27, DW_AT_decl_line(0x83)
     700                            .dwattr $C$DW$27, DW_AT_decl_column(0x09)
     701                    $C$DW$28        .dwtag  DW_TAG_member
     702                            .dwattr $C$DW$28, DW_AT_type(*$C$DW$T$18)
     703                            .dwattr $C$DW$28, DW_AT_name("_Long_double")
     704                            .dwattr $C$DW$28, DW_AT_TI_symbol_name("_Long_double")
     705                            .dwattr $C$DW$28, DW_AT_data_member_location[DW_OP_plus_uconst 0x0]
     706                            .dwattr $C$DW$28, DW_AT_accessibility(DW_ACCESS_public)
     707                            .dwattr $C$DW$28, DW_AT_decl_file("C:/ti6/ccsv6/tools/compiler/arm_5.1.6/include/ymath.h")
     708                            .dwattr $C$DW$28, DW_AT_decl_line(0x84)
     709                            .dwattr $C$DW$28, DW_AT_decl_column(0x0e)
     710                            .dwendtag $C$DW$T$20
     711                    
     712                            .dwattr $C$DW$T$20, DW_AT_decl_file("C:/ti6/ccsv6/tools/compiler/arm_5.1.6/include/ymath.h")
     713                            .dwattr $C$DW$T$20, DW_AT_decl_line(0x80)
     714                            .dwattr $C$DW$T$20, DW_AT_decl_column(0x02)
     715                    $C$DW$T$25      .dwtag  DW_TAG_typedef, DW_AT_name("_Dconst")
TI ARM Assembler PC v5.1.6 Wed Feb 10 23:08:23 2016

Tools Copyright (c) 1996-2014 Texas Instruments Incorporated
gyro_f.asm                                                           PAGE   14

     716                            .dwattr $C$DW$T$25, DW_AT_type(*$C$DW$T$20)
     717                            .dwattr $C$DW$T$25, DW_AT_language(DW_LANG_C)
     718                            .dwattr $C$DW$T$25, DW_AT_decl_file("C:/ti6/ccsv6/tools/compiler/arm_5.1.6/include/ymath.h")
     719                            .dwattr $C$DW$T$25, DW_AT_decl_line(0x85)
     720                            .dwattr $C$DW$T$25, DW_AT_decl_column(0x04)
     721                    $C$DW$T$2       .dwtag  DW_TAG_unspecified_type
     722                            .dwattr $C$DW$T$2, DW_AT_name("void")
     723                    $C$DW$T$3       .dwtag  DW_TAG_pointer_type
     724                            .dwattr $C$DW$T$3, DW_AT_type(*$C$DW$T$2)
     725                            .dwattr $C$DW$T$3, DW_AT_address_class(0x20)
     726                    $C$DW$T$4       .dwtag  DW_TAG_base_type
     727                            .dwattr $C$DW$T$4, DW_AT_encoding(DW_ATE_boolean)
     728                            .dwattr $C$DW$T$4, DW_AT_name("bool")
     729                            .dwattr $C$DW$T$4, DW_AT_byte_size(0x01)
     730                    $C$DW$T$5       .dwtag  DW_TAG_base_type
     731                            .dwattr $C$DW$T$5, DW_AT_encoding(DW_ATE_signed_char)
     732                            .dwattr $C$DW$T$5, DW_AT_name("signed char")
     733                            .dwattr $C$DW$T$5, DW_AT_byte_size(0x01)
     734                    $C$DW$T$33      .dwtag  DW_TAG_typedef, DW_AT_name("int8_t")
     735                            .dwattr $C$DW$T$33, DW_AT_type(*$C$DW$T$5)
     736                            .dwattr $C$DW$T$33, DW_AT_language(DW_LANG_C)
     737                            .dwattr $C$DW$T$33, DW_AT_decl_file("C:/ti6/ccsv6/tools/compiler/arm_5.1.6/include/stdint.h")
     738                            .dwattr $C$DW$T$33, DW_AT_decl_line(0x2a)
     739                            .dwattr $C$DW$T$33, DW_AT_decl_column(0x1d)
     740                    $C$DW$T$34      .dwtag  DW_TAG_typedef, DW_AT_name("int_least8_t")
     741                            .dwattr $C$DW$T$34, DW_AT_type(*$C$DW$T$33)
     742                            .dwattr $C$DW$T$34, DW_AT_language(DW_LANG_C)
     743                            .dwattr $C$DW$T$34, DW_AT_decl_file("C:/ti6/ccsv6/tools/compiler/arm_5.1.6/include/stdint.h")
     744                            .dwattr $C$DW$T$34, DW_AT_decl_line(0x37)
     745                            .dwattr $C$DW$T$34, DW_AT_decl_column(0x17)
     746                    $C$DW$T$6       .dwtag  DW_TAG_base_type
     747                            .dwattr $C$DW$T$6, DW_AT_encoding(DW_ATE_unsigned_char)
     748                            .dwattr $C$DW$T$6, DW_AT_name("unsigned char")
     749                            .dwattr $C$DW$T$6, DW_AT_byte_size(0x01)
     750                    $C$DW$T$26      .dwtag  DW_TAG_typedef, DW_AT_name("uint8_t")
     751                            .dwattr $C$DW$T$26, DW_AT_type(*$C$DW$T$6)
     752                            .dwattr $C$DW$T$26, DW_AT_language(DW_LANG_C)
     753                            .dwattr $C$DW$T$26, DW_AT_decl_file("C:/ti6/ccsv6/tools/compiler/arm_5.1.6/include/stdint.h")
     754                            .dwattr $C$DW$T$26, DW_AT_decl_line(0x2b)
     755                            .dwattr $C$DW$T$26, DW_AT_decl_column(0x1c)
     756                    $C$DW$T$27      .dwtag  DW_TAG_pointer_type
     757                            .dwattr $C$DW$T$27, DW_AT_type(*$C$DW$T$26)
     758                            .dwattr $C$DW$T$27, DW_AT_address_class(0x20)
     759                    
     760                    $C$DW$T$35      .dwtag  DW_TAG_array_type
     761                            .dwattr $C$DW$T$35, DW_AT_type(*$C$DW$T$26)
     762                            .dwattr $C$DW$T$35, DW_AT_language(DW_LANG_C)
     763                            .dwattr $C$DW$T$35, DW_AT_byte_size(0x08)
     764                    $C$DW$29        .dwtag  DW_TAG_subrange_type
     765                            .dwattr $C$DW$29, DW_AT_upper_bound(0x07)
     766                            .dwendtag $C$DW$T$35
     767                    
     768                    $C$DW$T$36      .dwtag  DW_TAG_typedef, DW_AT_name("uint_least8_t")
     769                            .dwattr $C$DW$T$36, DW_AT_type(*$C$DW$T$26)
     770                            .dwattr $C$DW$T$36, DW_AT_language(DW_LANG_C)
TI ARM Assembler PC v5.1.6 Wed Feb 10 23:08:23 2016

Tools Copyright (c) 1996-2014 Texas Instruments Incorporated
gyro_f.asm                                                           PAGE   15

     771                            .dwattr $C$DW$T$36, DW_AT_decl_file("C:/ti6/ccsv6/tools/compiler/arm_5.1.6/include/stdint.h")
     772                            .dwattr $C$DW$T$36, DW_AT_decl_line(0x38)
     773                            .dwattr $C$DW$T$36, DW_AT_decl_column(0x16)
     774                    $C$DW$T$7       .dwtag  DW_TAG_base_type
     775                            .dwattr $C$DW$T$7, DW_AT_encoding(DW_ATE_signed_char)
     776                            .dwattr $C$DW$T$7, DW_AT_name("wchar_t")
     777                            .dwattr $C$DW$T$7, DW_AT_byte_size(0x02)
     778                    $C$DW$T$8       .dwtag  DW_TAG_base_type
     779                            .dwattr $C$DW$T$8, DW_AT_encoding(DW_ATE_signed)
     780                            .dwattr $C$DW$T$8, DW_AT_name("short")
     781                            .dwattr $C$DW$T$8, DW_AT_byte_size(0x02)
     782                    $C$DW$T$23      .dwtag  DW_TAG_typedef, DW_AT_name("int16_t")
     783                            .dwattr $C$DW$T$23, DW_AT_type(*$C$DW$T$8)
     784                            .dwattr $C$DW$T$23, DW_AT_language(DW_LANG_C)
     785                            .dwattr $C$DW$T$23, DW_AT_decl_file("C:/ti6/ccsv6/tools/compiler/arm_5.1.6/include/stdint.h")
     786                            .dwattr $C$DW$T$23, DW_AT_decl_line(0x2c)
     787                            .dwattr $C$DW$T$23, DW_AT_decl_column(0x1d)
     788                    $C$DW$T$37      .dwtag  DW_TAG_typedef, DW_AT_name("int_least16_t")
     789                            .dwattr $C$DW$T$37, DW_AT_type(*$C$DW$T$23)
     790                            .dwattr $C$DW$T$37, DW_AT_language(DW_LANG_C)
     791                            .dwattr $C$DW$T$37, DW_AT_decl_file("C:/ti6/ccsv6/tools/compiler/arm_5.1.6/include/stdint.h")
     792                            .dwattr $C$DW$T$37, DW_AT_decl_line(0x3a)
     793                            .dwattr $C$DW$T$37, DW_AT_decl_column(0x17)
     794                    $C$DW$T$9       .dwtag  DW_TAG_base_type
     795                            .dwattr $C$DW$T$9, DW_AT_encoding(DW_ATE_unsigned)
     796                            .dwattr $C$DW$T$9, DW_AT_name("unsigned short")
     797                            .dwattr $C$DW$T$9, DW_AT_byte_size(0x02)
     798                    $C$DW$T$38      .dwtag  DW_TAG_typedef, DW_AT_name("_Wchart")
     799                            .dwattr $C$DW$T$38, DW_AT_type(*$C$DW$T$9)
     800                            .dwattr $C$DW$T$38, DW_AT_language(DW_LANG_C)
     801                            .dwattr $C$DW$T$38, DW_AT_decl_file("C:/ti6/ccsv6/tools/compiler/arm_5.1.6/include/yvals.h")
     802                            .dwattr $C$DW$T$38, DW_AT_decl_line(0x1fe)
     803                            .dwattr $C$DW$T$38, DW_AT_decl_column(0x21)
     804                    $C$DW$T$39      .dwtag  DW_TAG_typedef, DW_AT_name("_Wintt")
     805                            .dwattr $C$DW$T$39, DW_AT_type(*$C$DW$T$9)
     806                            .dwattr $C$DW$T$39, DW_AT_language(DW_LANG_C)
     807                            .dwattr $C$DW$T$39, DW_AT_decl_file("C:/ti6/ccsv6/tools/compiler/arm_5.1.6/include/yvals.h")
     808                            .dwattr $C$DW$T$39, DW_AT_decl_line(0x1ff)
     809                            .dwattr $C$DW$T$39, DW_AT_decl_column(0x21)
     810                    
     811                    $C$DW$T$19      .dwtag  DW_TAG_array_type
     812                            .dwattr $C$DW$T$19, DW_AT_type(*$C$DW$T$9)
     813                            .dwattr $C$DW$T$19, DW_AT_language(DW_LANG_C)
     814                            .dwattr $C$DW$T$19, DW_AT_byte_size(0x10)
     815                    $C$DW$30        .dwtag  DW_TAG_subrange_type
     816                            .dwattr $C$DW$30, DW_AT_upper_bound(0x07)
     817                            .dwendtag $C$DW$T$19
     818                    
     819                    $C$DW$T$40      .dwtag  DW_TAG_typedef, DW_AT_name("uint16_t")
     820                            .dwattr $C$DW$T$40, DW_AT_type(*$C$DW$T$9)
     821                            .dwattr $C$DW$T$40, DW_AT_language(DW_LANG_C)
     822                            .dwattr $C$DW$T$40, DW_AT_decl_file("C:/ti6/ccsv6/tools/compiler/arm_5.1.6/include/stdint.h")
     823                            .dwattr $C$DW$T$40, DW_AT_decl_line(0x2d)
     824                            .dwattr $C$DW$T$40, DW_AT_decl_column(0x1c)
     825                    $C$DW$T$41      .dwtag  DW_TAG_typedef, DW_AT_name("uint_least16_t")
TI ARM Assembler PC v5.1.6 Wed Feb 10 23:08:23 2016

Tools Copyright (c) 1996-2014 Texas Instruments Incorporated
gyro_f.asm                                                           PAGE   16

     826                            .dwattr $C$DW$T$41, DW_AT_type(*$C$DW$T$40)
     827                            .dwattr $C$DW$T$41, DW_AT_language(DW_LANG_C)
     828                            .dwattr $C$DW$T$41, DW_AT_decl_file("C:/ti6/ccsv6/tools/compiler/arm_5.1.6/include/stdint.h")
     829                            .dwattr $C$DW$T$41, DW_AT_decl_line(0x3b)
     830                            .dwattr $C$DW$T$41, DW_AT_decl_column(0x16)
     831                    $C$DW$T$10      .dwtag  DW_TAG_base_type
     832                            .dwattr $C$DW$T$10, DW_AT_encoding(DW_ATE_signed)
     833                            .dwattr $C$DW$T$10, DW_AT_name("int")
     834                            .dwattr $C$DW$T$10, DW_AT_byte_size(0x04)
     835                    $C$DW$T$42      .dwtag  DW_TAG_typedef, DW_AT_name("_Ptrdifft")
     836                            .dwattr $C$DW$T$42, DW_AT_type(*$C$DW$T$10)
     837                            .dwattr $C$DW$T$42, DW_AT_language(DW_LANG_C)
     838                            .dwattr $C$DW$T$42, DW_AT_decl_file("C:/ti6/ccsv6/tools/compiler/arm_5.1.6/include/yvals.h")
     839                            .dwattr $C$DW$T$42, DW_AT_decl_line(0xa6)
     840                            .dwattr $C$DW$T$42, DW_AT_decl_column(0x1e)
     841                    $C$DW$T$43      .dwtag  DW_TAG_typedef, DW_AT_name("int32_t")
     842                            .dwattr $C$DW$T$43, DW_AT_type(*$C$DW$T$10)
     843                            .dwattr $C$DW$T$43, DW_AT_language(DW_LANG_C)
     844                            .dwattr $C$DW$T$43, DW_AT_decl_file("C:/ti6/ccsv6/tools/compiler/arm_5.1.6/include/stdint.h")
     845                            .dwattr $C$DW$T$43, DW_AT_decl_line(0x2e)
     846                            .dwattr $C$DW$T$43, DW_AT_decl_column(0x1d)
     847                    $C$DW$T$44      .dwtag  DW_TAG_typedef, DW_AT_name("int_fast16_t")
     848                            .dwattr $C$DW$T$44, DW_AT_type(*$C$DW$T$43)
     849                            .dwattr $C$DW$T$44, DW_AT_language(DW_LANG_C)
     850                            .dwattr $C$DW$T$44, DW_AT_decl_file("C:/ti6/ccsv6/tools/compiler/arm_5.1.6/include/stdint.h")
     851                            .dwattr $C$DW$T$44, DW_AT_decl_line(0x47)
     852                            .dwattr $C$DW$T$44, DW_AT_decl_column(0x17)
     853                    $C$DW$T$45      .dwtag  DW_TAG_typedef, DW_AT_name("int_fast32_t")
     854                            .dwattr $C$DW$T$45, DW_AT_type(*$C$DW$T$43)
     855                            .dwattr $C$DW$T$45, DW_AT_language(DW_LANG_C)
     856                            .dwattr $C$DW$T$45, DW_AT_decl_file("C:/ti6/ccsv6/tools/compiler/arm_5.1.6/include/stdint.h")
     857                            .dwattr $C$DW$T$45, DW_AT_decl_line(0x4a)
     858                            .dwattr $C$DW$T$45, DW_AT_decl_column(0x17)
     859                    $C$DW$T$46      .dwtag  DW_TAG_typedef, DW_AT_name("int_fast8_t")
     860                            .dwattr $C$DW$T$46, DW_AT_type(*$C$DW$T$43)
     861                            .dwattr $C$DW$T$46, DW_AT_language(DW_LANG_C)
     862                            .dwattr $C$DW$T$46, DW_AT_decl_file("C:/ti6/ccsv6/tools/compiler/arm_5.1.6/include/stdint.h")
     863                            .dwattr $C$DW$T$46, DW_AT_decl_line(0x45)
     864                            .dwattr $C$DW$T$46, DW_AT_decl_column(0x17)
     865                    $C$DW$T$47      .dwtag  DW_TAG_typedef, DW_AT_name("int_least32_t")
     866                            .dwattr $C$DW$T$47, DW_AT_type(*$C$DW$T$43)
     867                            .dwattr $C$DW$T$47, DW_AT_language(DW_LANG_C)
     868                            .dwattr $C$DW$T$47, DW_AT_decl_file("C:/ti6/ccsv6/tools/compiler/arm_5.1.6/include/stdint.h")
     869                            .dwattr $C$DW$T$47, DW_AT_decl_line(0x3c)
     870                            .dwattr $C$DW$T$47, DW_AT_decl_column(0x17)
     871                    $C$DW$T$48      .dwtag  DW_TAG_typedef, DW_AT_name("intptr_t")
     872                            .dwattr $C$DW$T$48, DW_AT_type(*$C$DW$T$10)
     873                            .dwattr $C$DW$T$48, DW_AT_language(DW_LANG_C)
     874                            .dwattr $C$DW$T$48, DW_AT_decl_file("C:/ti6/ccsv6/tools/compiler/arm_5.1.6/include/stdint.h")
     875                            .dwattr $C$DW$T$48, DW_AT_decl_line(0x52)
     876                            .dwattr $C$DW$T$48, DW_AT_decl_column(0x1a)
     877                    $C$DW$T$11      .dwtag  DW_TAG_base_type
     878                            .dwattr $C$DW$T$11, DW_AT_encoding(DW_ATE_unsigned)
     879                            .dwattr $C$DW$T$11, DW_AT_name("unsigned int")
     880                            .dwattr $C$DW$T$11, DW_AT_byte_size(0x04)
TI ARM Assembler PC v5.1.6 Wed Feb 10 23:08:23 2016

Tools Copyright (c) 1996-2014 Texas Instruments Incorporated
gyro_f.asm                                                           PAGE   17

     881                    $C$DW$T$49      .dwtag  DW_TAG_typedef, DW_AT_name("_Sizet")
     882                            .dwattr $C$DW$T$49, DW_AT_type(*$C$DW$T$11)
     883                            .dwattr $C$DW$T$49, DW_AT_language(DW_LANG_C)
     884                            .dwattr $C$DW$T$49, DW_AT_decl_file("C:/ti6/ccsv6/tools/compiler/arm_5.1.6/include/yvals.h")
     885                            .dwattr $C$DW$T$49, DW_AT_decl_line(0xac)
     886                            .dwattr $C$DW$T$49, DW_AT_decl_column(0x1a)
     887                    $C$DW$T$50      .dwtag  DW_TAG_typedef, DW_AT_name("uint32_t")
     888                            .dwattr $C$DW$T$50, DW_AT_type(*$C$DW$T$11)
     889                            .dwattr $C$DW$T$50, DW_AT_language(DW_LANG_C)
     890                            .dwattr $C$DW$T$50, DW_AT_decl_file("C:/ti6/ccsv6/tools/compiler/arm_5.1.6/include/stdint.h")
     891                            .dwattr $C$DW$T$50, DW_AT_decl_line(0x2f)
     892                            .dwattr $C$DW$T$50, DW_AT_decl_column(0x1c)
     893                    $C$DW$T$53      .dwtag  DW_TAG_typedef, DW_AT_name("uint_fast16_t")
     894                            .dwattr $C$DW$T$53, DW_AT_type(*$C$DW$T$50)
     895                            .dwattr $C$DW$T$53, DW_AT_language(DW_LANG_C)
     896                            .dwattr $C$DW$T$53, DW_AT_decl_file("C:/ti6/ccsv6/tools/compiler/arm_5.1.6/include/stdint.h")
     897                            .dwattr $C$DW$T$53, DW_AT_decl_line(0x48)
     898                            .dwattr $C$DW$T$53, DW_AT_decl_column(0x16)
     899                    $C$DW$T$54      .dwtag  DW_TAG_typedef, DW_AT_name("uint_fast32_t")
     900                            .dwattr $C$DW$T$54, DW_AT_type(*$C$DW$T$50)
     901                            .dwattr $C$DW$T$54, DW_AT_language(DW_LANG_C)
     902                            .dwattr $C$DW$T$54, DW_AT_decl_file("C:/ti6/ccsv6/tools/compiler/arm_5.1.6/include/stdint.h")
     903                            .dwattr $C$DW$T$54, DW_AT_decl_line(0x4b)
     904                            .dwattr $C$DW$T$54, DW_AT_decl_column(0x16)
     905                    $C$DW$T$55      .dwtag  DW_TAG_typedef, DW_AT_name("uint_fast8_t")
     906                            .dwattr $C$DW$T$55, DW_AT_type(*$C$DW$T$50)
     907                            .dwattr $C$DW$T$55, DW_AT_language(DW_LANG_C)
     908                            .dwattr $C$DW$T$55, DW_AT_decl_file("C:/ti6/ccsv6/tools/compiler/arm_5.1.6/include/stdint.h")
     909                            .dwattr $C$DW$T$55, DW_AT_decl_line(0x46)
     910                            .dwattr $C$DW$T$55, DW_AT_decl_column(0x16)
     911                    $C$DW$T$56      .dwtag  DW_TAG_typedef, DW_AT_name("uint_least32_t")
     912                            .dwattr $C$DW$T$56, DW_AT_type(*$C$DW$T$50)
     913                            .dwattr $C$DW$T$56, DW_AT_language(DW_LANG_C)
     914                            .dwattr $C$DW$T$56, DW_AT_decl_file("C:/ti6/ccsv6/tools/compiler/arm_5.1.6/include/stdint.h")
     915                            .dwattr $C$DW$T$56, DW_AT_decl_line(0x3d)
     916                            .dwattr $C$DW$T$56, DW_AT_decl_column(0x16)
     917                    $C$DW$T$57      .dwtag  DW_TAG_typedef, DW_AT_name("uintptr_t")
     918                            .dwattr $C$DW$T$57, DW_AT_type(*$C$DW$T$11)
     919                            .dwattr $C$DW$T$57, DW_AT_language(DW_LANG_C)
     920                            .dwattr $C$DW$T$57, DW_AT_decl_file("C:/ti6/ccsv6/tools/compiler/arm_5.1.6/include/stdint.h")
     921                            .dwattr $C$DW$T$57, DW_AT_decl_line(0x53)
     922                            .dwattr $C$DW$T$57, DW_AT_decl_column(0x1a)
     923                    $C$DW$T$12      .dwtag  DW_TAG_base_type
     924                            .dwattr $C$DW$T$12, DW_AT_encoding(DW_ATE_signed)
     925                            .dwattr $C$DW$T$12, DW_AT_name("long")
     926                            .dwattr $C$DW$T$12, DW_AT_byte_size(0x04)
     927                    $C$DW$T$58      .dwtag  DW_TAG_typedef, DW_AT_name("_Int32t")
     928                            .dwattr $C$DW$T$58, DW_AT_type(*$C$DW$T$12)
     929                            .dwattr $C$DW$T$58, DW_AT_language(DW_LANG_C)
     930                            .dwattr $C$DW$T$58, DW_AT_decl_file("C:/ti6/ccsv6/tools/compiler/arm_5.1.6/include/yvals.h")
     931                            .dwattr $C$DW$T$58, DW_AT_decl_line(0xa2)
     932                            .dwattr $C$DW$T$58, DW_AT_decl_column(0x0e)
     933                    $C$DW$T$13      .dwtag  DW_TAG_base_type
     934                            .dwattr $C$DW$T$13, DW_AT_encoding(DW_ATE_unsigned)
     935                            .dwattr $C$DW$T$13, DW_AT_name("unsigned long")
TI ARM Assembler PC v5.1.6 Wed Feb 10 23:08:23 2016

Tools Copyright (c) 1996-2014 Texas Instruments Incorporated
gyro_f.asm                                                           PAGE   18

     936                            .dwattr $C$DW$T$13, DW_AT_byte_size(0x04)
     937                    $C$DW$T$59      .dwtag  DW_TAG_typedef, DW_AT_name("_Uint32t")
     938                            .dwattr $C$DW$T$59, DW_AT_type(*$C$DW$T$13)
     939                            .dwattr $C$DW$T$59, DW_AT_language(DW_LANG_C)
     940                            .dwattr $C$DW$T$59, DW_AT_decl_file("C:/ti6/ccsv6/tools/compiler/arm_5.1.6/include/yvals.h")
     941                            .dwattr $C$DW$T$59, DW_AT_decl_line(0xa3)
     942                            .dwattr $C$DW$T$59, DW_AT_decl_column(0x17)
     943                    $C$DW$T$14      .dwtag  DW_TAG_base_type
     944                            .dwattr $C$DW$T$14, DW_AT_encoding(DW_ATE_signed)
     945                            .dwattr $C$DW$T$14, DW_AT_name("long long")
     946                            .dwattr $C$DW$T$14, DW_AT_byte_size(0x08)
     947                    $C$DW$T$60      .dwtag  DW_TAG_typedef, DW_AT_name("_Longlong")
     948                            .dwattr $C$DW$T$60, DW_AT_type(*$C$DW$T$14)
     949                            .dwattr $C$DW$T$60, DW_AT_language(DW_LANG_C)
     950                            .dwattr $C$DW$T$60, DW_AT_decl_file("C:/ti6/ccsv6/tools/compiler/arm_5.1.6/include/yvals.h")
     951                            .dwattr $C$DW$T$60, DW_AT_decl_line(0x1ce)
     952                            .dwattr $C$DW$T$60, DW_AT_decl_column(0x13)
     953                    $C$DW$T$61      .dwtag  DW_TAG_typedef, DW_AT_name("int64_t")
     954                            .dwattr $C$DW$T$61, DW_AT_type(*$C$DW$T$14)
     955                            .dwattr $C$DW$T$61, DW_AT_language(DW_LANG_C)
     956                            .dwattr $C$DW$T$61, DW_AT_decl_file("C:/ti6/ccsv6/tools/compiler/arm_5.1.6/include/stdint.h")
     957                            .dwattr $C$DW$T$61, DW_AT_decl_line(0x32)
     958                            .dwattr $C$DW$T$61, DW_AT_decl_column(0x21)
     959                    $C$DW$T$62      .dwtag  DW_TAG_typedef, DW_AT_name("int_fast64_t")
     960                            .dwattr $C$DW$T$62, DW_AT_type(*$C$DW$T$61)
     961                            .dwattr $C$DW$T$62, DW_AT_language(DW_LANG_C)
     962                            .dwattr $C$DW$T$62, DW_AT_decl_file("C:/ti6/ccsv6/tools/compiler/arm_5.1.6/include/stdint.h")
     963                            .dwattr $C$DW$T$62, DW_AT_decl_line(0x4e)
     964                            .dwattr $C$DW$T$62, DW_AT_decl_column(0x17)
     965                    $C$DW$T$63      .dwtag  DW_TAG_typedef, DW_AT_name("int_least64_t")
     966                            .dwattr $C$DW$T$63, DW_AT_type(*$C$DW$T$61)
     967                            .dwattr $C$DW$T$63, DW_AT_language(DW_LANG_C)
     968                            .dwattr $C$DW$T$63, DW_AT_decl_file("C:/ti6/ccsv6/tools/compiler/arm_5.1.6/include/stdint.h")
     969                            .dwattr $C$DW$T$63, DW_AT_decl_line(0x40)
     970                            .dwattr $C$DW$T$63, DW_AT_decl_column(0x17)
     971                    $C$DW$T$64      .dwtag  DW_TAG_typedef, DW_AT_name("intmax_t")
     972                            .dwattr $C$DW$T$64, DW_AT_type(*$C$DW$T$14)
     973                            .dwattr $C$DW$T$64, DW_AT_language(DW_LANG_C)
     974                            .dwattr $C$DW$T$64, DW_AT_decl_file("C:/ti6/ccsv6/tools/compiler/arm_5.1.6/include/stdint.h")
     975                            .dwattr $C$DW$T$64, DW_AT_decl_line(0x56)
     976                            .dwattr $C$DW$T$64, DW_AT_decl_column(0x20)
     977                    $C$DW$T$15      .dwtag  DW_TAG_base_type
     978                            .dwattr $C$DW$T$15, DW_AT_encoding(DW_ATE_unsigned)
     979                            .dwattr $C$DW$T$15, DW_AT_name("unsigned long long")
     980                            .dwattr $C$DW$T$15, DW_AT_byte_size(0x08)
     981                    $C$DW$T$65      .dwtag  DW_TAG_typedef, DW_AT_name("_ULonglong")
     982                            .dwattr $C$DW$T$65, DW_AT_type(*$C$DW$T$15)
     983                            .dwattr $C$DW$T$65, DW_AT_language(DW_LANG_C)
     984                            .dwattr $C$DW$T$65, DW_AT_decl_file("C:/ti6/ccsv6/tools/compiler/arm_5.1.6/include/yvals.h")
     985                            .dwattr $C$DW$T$65, DW_AT_decl_line(0x1cf)
     986                            .dwattr $C$DW$T$65, DW_AT_decl_column(0x14)
     987                    $C$DW$T$66      .dwtag  DW_TAG_typedef, DW_AT_name("uint64_t")
     988                            .dwattr $C$DW$T$66, DW_AT_type(*$C$DW$T$15)
     989                            .dwattr $C$DW$T$66, DW_AT_language(DW_LANG_C)
     990                            .dwattr $C$DW$T$66, DW_AT_decl_file("C:/ti6/ccsv6/tools/compiler/arm_5.1.6/include/stdint.h")
TI ARM Assembler PC v5.1.6 Wed Feb 10 23:08:23 2016

Tools Copyright (c) 1996-2014 Texas Instruments Incorporated
gyro_f.asm                                                           PAGE   19

     991                            .dwattr $C$DW$T$66, DW_AT_decl_line(0x33)
     992                            .dwattr $C$DW$T$66, DW_AT_decl_column(0x20)
     993                    $C$DW$T$67      .dwtag  DW_TAG_typedef, DW_AT_name("uint_fast64_t")
     994                            .dwattr $C$DW$T$67, DW_AT_type(*$C$DW$T$66)
     995                            .dwattr $C$DW$T$67, DW_AT_language(DW_LANG_C)
     996                            .dwattr $C$DW$T$67, DW_AT_decl_file("C:/ti6/ccsv6/tools/compiler/arm_5.1.6/include/stdint.h")
     997                            .dwattr $C$DW$T$67, DW_AT_decl_line(0x4f)
     998                            .dwattr $C$DW$T$67, DW_AT_decl_column(0x16)
     999                    $C$DW$T$68      .dwtag  DW_TAG_typedef, DW_AT_name("uint_least64_t")
    1000                            .dwattr $C$DW$T$68, DW_AT_type(*$C$DW$T$66)
    1001                            .dwattr $C$DW$T$68, DW_AT_language(DW_LANG_C)
    1002                            .dwattr $C$DW$T$68, DW_AT_decl_file("C:/ti6/ccsv6/tools/compiler/arm_5.1.6/include/stdint.h")
    1003                            .dwattr $C$DW$T$68, DW_AT_decl_line(0x41)
    1004                            .dwattr $C$DW$T$68, DW_AT_decl_column(0x16)
    1005                    $C$DW$T$69      .dwtag  DW_TAG_typedef, DW_AT_name("uintmax_t")
    1006                            .dwattr $C$DW$T$69, DW_AT_type(*$C$DW$T$15)
    1007                            .dwattr $C$DW$T$69, DW_AT_language(DW_LANG_C)
    1008                            .dwattr $C$DW$T$69, DW_AT_decl_file("C:/ti6/ccsv6/tools/compiler/arm_5.1.6/include/stdint.h")
    1009                            .dwattr $C$DW$T$69, DW_AT_decl_line(0x57)
    1010                            .dwattr $C$DW$T$69, DW_AT_decl_column(0x20)
    1011                    $C$DW$T$16      .dwtag  DW_TAG_base_type
    1012                            .dwattr $C$DW$T$16, DW_AT_encoding(DW_ATE_float)
    1013                            .dwattr $C$DW$T$16, DW_AT_name("float")
    1014                            .dwattr $C$DW$T$16, DW_AT_byte_size(0x04)
    1015                    $C$DW$T$70      .dwtag  DW_TAG_typedef, DW_AT_name("float_t")
    1016                            .dwattr $C$DW$T$70, DW_AT_type(*$C$DW$T$16)
    1017                            .dwattr $C$DW$T$70, DW_AT_language(DW_LANG_C)
    1018                            .dwattr $C$DW$T$70, DW_AT_decl_file("C:/ti6/ccsv6/tools/compiler/arm_5.1.6/include/math.h")
    1019                            .dwattr $C$DW$T$70, DW_AT_decl_line(0x62)
    1020                            .dwattr $C$DW$T$70, DW_AT_decl_column(0x0f)
    1021                    $C$DW$T$17      .dwtag  DW_TAG_base_type
    1022                            .dwattr $C$DW$T$17, DW_AT_encoding(DW_ATE_float)
    1023                            .dwattr $C$DW$T$17, DW_AT_name("double")
    1024                            .dwattr $C$DW$T$17, DW_AT_byte_size(0x08)
    1025                    $C$DW$T$71      .dwtag  DW_TAG_typedef, DW_AT_name("double_t")
    1026                            .dwattr $C$DW$T$71, DW_AT_type(*$C$DW$T$17)
    1027                            .dwattr $C$DW$T$71, DW_AT_language(DW_LANG_C)
    1028                            .dwattr $C$DW$T$71, DW_AT_decl_file("C:/ti6/ccsv6/tools/compiler/arm_5.1.6/include/math.h")
    1029                            .dwattr $C$DW$T$71, DW_AT_decl_line(0x63)
    1030                            .dwattr $C$DW$T$71, DW_AT_decl_column(0x10)
    1031                    $C$DW$T$18      .dwtag  DW_TAG_base_type
    1032                            .dwattr $C$DW$T$18, DW_AT_encoding(DW_ATE_float)
    1033                            .dwattr $C$DW$T$18, DW_AT_name("long double")
    1034                            .dwattr $C$DW$T$18, DW_AT_byte_size(0x08)
    1035                    $C$DW$T$72      .dwtag  DW_TAG_typedef, DW_AT_name("_Sysch_t")
    1036                            .dwattr $C$DW$T$72, DW_AT_type(*$C$DW$T$6)
    1037                            .dwattr $C$DW$T$72, DW_AT_language(DW_LANG_C)
    1038                            .dwattr $C$DW$T$72, DW_AT_decl_file("C:/ti6/ccsv6/tools/compiler/arm_5.1.6/include/yvals.h")
    1039                            .dwattr $C$DW$T$72, DW_AT_decl_line(0x23a)
    1040                            .dwattr $C$DW$T$72, DW_AT_decl_column(0x0e)
    1041                    $C$DW$T$73      .dwtag  DW_TAG_pointer_type
    1042                            .dwattr $C$DW$T$73, DW_AT_type(*$C$DW$T$6)
    1043                            .dwattr $C$DW$T$73, DW_AT_address_class(0x20)
    1044                    $C$DW$T$74      .dwtag  DW_TAG_typedef, DW_AT_name("__builtin_va_list")
    1045                            .dwattr $C$DW$T$74, DW_AT_type(*$C$DW$T$73)
TI ARM Assembler PC v5.1.6 Wed Feb 10 23:08:23 2016

Tools Copyright (c) 1996-2014 Texas Instruments Incorporated
gyro_f.asm                                                           PAGE   20

    1046                            .dwattr $C$DW$T$74, DW_AT_language(DW_LANG_C)
    1047                            .dwattr $C$DW$T$74, DW_AT_decl_file("../gyro_f.c")
    1048                            .dwattr $C$DW$T$74, DW_AT_decl_line(0x67)
    1049                            .dwattr $C$DW$T$74, DW_AT_decl_column(0x01)
    1050                    
    1051                    $C$DW$T$21      .dwtag  DW_TAG_structure_type
    1052                            .dwattr $C$DW$T$21, DW_AT_name("__va_list")
    1053                            .dwattr $C$DW$T$21, DW_AT_byte_size(0x04)
    1054                    $C$DW$31        .dwtag  DW_TAG_member
    1055                            .dwattr $C$DW$31, DW_AT_type(*$C$DW$T$3)
    1056                            .dwattr $C$DW$31, DW_AT_name("__ap")
    1057                            .dwattr $C$DW$31, DW_AT_TI_symbol_name("__ap")
    1058                            .dwattr $C$DW$31, DW_AT_data_member_location[DW_OP_plus_uconst 0x0]
    1059                            .dwattr $C$DW$31, DW_AT_accessibility(DW_ACCESS_public)
    1060                            .dwattr $C$DW$31, DW_AT_decl_file("C:/ti6/ccsv6/tools/compiler/arm_5.1.6/include/stdarg.h")
    1061                            .dwattr $C$DW$31, DW_AT_decl_line(0x32)
    1062                            .dwattr $C$DW$31, DW_AT_decl_column(0x0c)
    1063                            .dwendtag $C$DW$T$21
    1064                    
    1065                            .dwattr $C$DW$T$21, DW_AT_decl_file("C:/ti6/ccsv6/tools/compiler/arm_5.1.6/include/stdarg.h")
    1066                            .dwattr $C$DW$T$21, DW_AT_decl_line(0x31)
    1067                            .dwattr $C$DW$T$21, DW_AT_decl_column(0x10)
    1068                    $C$DW$T$75      .dwtag  DW_TAG_typedef, DW_AT_name("va_list")
    1069                            .dwattr $C$DW$T$75, DW_AT_type(*$C$DW$T$21)
    1070                            .dwattr $C$DW$T$75, DW_AT_language(DW_LANG_C)
    1071                            .dwattr $C$DW$T$75, DW_AT_decl_file("C:/ti6/ccsv6/tools/compiler/arm_5.1.6/include/stdarg.h")
    1072                            .dwattr $C$DW$T$75, DW_AT_decl_line(0x33)
    1073                            .dwattr $C$DW$T$75, DW_AT_decl_column(0x03)
    1074                    $C$DW$T$76      .dwtag  DW_TAG_typedef, DW_AT_name("_Va_list")
    1075                            .dwattr $C$DW$T$76, DW_AT_type(*$C$DW$T$75)
    1076                            .dwattr $C$DW$T$76, DW_AT_language(DW_LANG_C)
    1077                            .dwattr $C$DW$T$76, DW_AT_decl_file("C:/ti6/ccsv6/tools/compiler/arm_5.1.6/include/yvals.h")
    1078                            .dwattr $C$DW$T$76, DW_AT_decl_line(0x218)
    1079                            .dwattr $C$DW$T$76, DW_AT_decl_column(0x17)
    1080                    
    1081                    $C$DW$T$24      .dwtag  DW_TAG_structure_type
    1082                            .dwattr $C$DW$T$24, DW_AT_name("_gyro")
    1083                            .dwattr $C$DW$T$24, DW_AT_byte_size(0x40)
    1084                    $C$DW$32        .dwtag  DW_TAG_member
    1085                            .dwattr $C$DW$32, DW_AT_type(*$C$DW$T$6)
    1086                            .dwattr $C$DW$32, DW_AT_name("IsPresent")
    1087                            .dwattr $C$DW$32, DW_AT_TI_symbol_name("IsPresent")
    1088                            .dwattr $C$DW$32, DW_AT_data_member_location[DW_OP_plus_uconst 0x0]
    1089                            .dwattr $C$DW$32, DW_AT_accessibility(DW_ACCESS_public)
    1090                            .dwattr $C$DW$32, DW_AT_decl_file("..\gyro_f.h")
    1091                            .dwattr $C$DW$32, DW_AT_decl_line(0x11)
    1092                            .dwattr $C$DW$32, DW_AT_decl_column(0x07)
    1093                    $C$DW$33        .dwtag  DW_TAG_member
    1094                            .dwattr $C$DW$33, DW_AT_type(*$C$DW$T$6)
    1095                            .dwattr $C$DW$33, DW_AT_name("IsOn")
    1096                            .dwattr $C$DW$33, DW_AT_TI_symbol_name("IsOn")
    1097                            .dwattr $C$DW$33, DW_AT_data_member_location[DW_OP_plus_uconst 0x1]
    1098                            .dwattr $C$DW$33, DW_AT_accessibility(DW_ACCESS_public)
    1099                            .dwattr $C$DW$33, DW_AT_decl_file("..\gyro_f.h")
    1100                            .dwattr $C$DW$33, DW_AT_decl_line(0x12)
TI ARM Assembler PC v5.1.6 Wed Feb 10 23:08:23 2016

Tools Copyright (c) 1996-2014 Texas Instruments Incorporated
gyro_f.asm                                                           PAGE   21

    1101                            .dwattr $C$DW$33, DW_AT_decl_column(0x07)
    1102                    $C$DW$34        .dwtag  DW_TAG_member
    1103                            .dwattr $C$DW$34, DW_AT_type(*$C$DW$T$23)
    1104                            .dwattr $C$DW$34, DW_AT_name("x0")
    1105                            .dwattr $C$DW$34, DW_AT_TI_symbol_name("x0")
    1106                            .dwattr $C$DW$34, DW_AT_data_member_location[DW_OP_plus_uconst 0x2]
    1107                            .dwattr $C$DW$34, DW_AT_accessibility(DW_ACCESS_public)
    1108                            .dwattr $C$DW$34, DW_AT_decl_file("..\gyro_f.h")
    1109                            .dwattr $C$DW$34, DW_AT_decl_line(0x14)
    1110                            .dwattr $C$DW$34, DW_AT_decl_column(0x0a)
    1111                    $C$DW$35        .dwtag  DW_TAG_member
    1112                            .dwattr $C$DW$35, DW_AT_type(*$C$DW$T$23)
    1113                            .dwattr $C$DW$35, DW_AT_name("y0")
    1114                            .dwattr $C$DW$35, DW_AT_TI_symbol_name("y0")
    1115                            .dwattr $C$DW$35, DW_AT_data_member_location[DW_OP_plus_uconst 0x4]
    1116                            .dwattr $C$DW$35, DW_AT_accessibility(DW_ACCESS_public)
    1117                            .dwattr $C$DW$35, DW_AT_decl_file("..\gyro_f.h")
    1118                            .dwattr $C$DW$35, DW_AT_decl_line(0x14)
    1119                            .dwattr $C$DW$35, DW_AT_decl_column(0x0e)
    1120                    $C$DW$36        .dwtag  DW_TAG_member
    1121                            .dwattr $C$DW$36, DW_AT_type(*$C$DW$T$23)
    1122                            .dwattr $C$DW$36, DW_AT_name("z0")
    1123                            .dwattr $C$DW$36, DW_AT_TI_symbol_name("z0")
    1124                            .dwattr $C$DW$36, DW_AT_data_member_location[DW_OP_plus_uconst 0x6]
    1125                            .dwattr $C$DW$36, DW_AT_accessibility(DW_ACCESS_public)
    1126                            .dwattr $C$DW$36, DW_AT_decl_file("..\gyro_f.h")
    1127                            .dwattr $C$DW$36, DW_AT_decl_line(0x14)
    1128                            .dwattr $C$DW$36, DW_AT_decl_column(0x12)
    1129                    $C$DW$37        .dwtag  DW_TAG_member
    1130                            .dwattr $C$DW$37, DW_AT_type(*$C$DW$T$6)
    1131                            .dwattr $C$DW$37, DW_AT_name("asseOn")
    1132                            .dwattr $C$DW$37, DW_AT_TI_symbol_name("asseOn")
    1133                            .dwattr $C$DW$37, DW_AT_data_member_location[DW_OP_plus_uconst 0x8]
    1134                            .dwattr $C$DW$37, DW_AT_accessibility(DW_ACCESS_public)
    1135                            .dwattr $C$DW$37, DW_AT_decl_file("..\gyro_f.h")
    1136                            .dwattr $C$DW$37, DW_AT_decl_line(0x16)
    1137                            .dwattr $C$DW$37, DW_AT_decl_column(0x07)
    1138                    $C$DW$38        .dwtag  DW_TAG_member
    1139                            .dwattr $C$DW$38, DW_AT_type(*$C$DW$T$23)
    1140                            .dwattr $C$DW$38, DW_AT_name("yaw")
    1141                            .dwattr $C$DW$38, DW_AT_TI_symbol_name("yaw")
    1142                            .dwattr $C$DW$38, DW_AT_data_member_location[DW_OP_plus_uconst 0xa]
    1143                            .dwattr $C$DW$38, DW_AT_accessibility(DW_ACCESS_public)
    1144                            .dwattr $C$DW$38, DW_AT_decl_file("..\gyro_f.h")
    1145                            .dwattr $C$DW$38, DW_AT_decl_line(0x19)
    1146                            .dwattr $C$DW$38, DW_AT_decl_column(0x0a)
    1147                    $C$DW$39        .dwtag  DW_TAG_member
    1148                            .dwattr $C$DW$39, DW_AT_type(*$C$DW$T$23)
    1149                            .dwattr $C$DW$39, DW_AT_name("roll")
    1150                            .dwattr $C$DW$39, DW_AT_TI_symbol_name("roll")
    1151                            .dwattr $C$DW$39, DW_AT_data_member_location[DW_OP_plus_uconst 0xc]
    1152                            .dwattr $C$DW$39, DW_AT_accessibility(DW_ACCESS_public)
    1153                            .dwattr $C$DW$39, DW_AT_decl_file("..\gyro_f.h")
    1154                            .dwattr $C$DW$39, DW_AT_decl_line(0x1a)
    1155                            .dwattr $C$DW$39, DW_AT_decl_column(0x0a)
TI ARM Assembler PC v5.1.6 Wed Feb 10 23:08:23 2016

Tools Copyright (c) 1996-2014 Texas Instruments Incorporated
gyro_f.asm                                                           PAGE   22

    1156                    $C$DW$40        .dwtag  DW_TAG_member
    1157                            .dwattr $C$DW$40, DW_AT_type(*$C$DW$T$23)
    1158                            .dwattr $C$DW$40, DW_AT_name("pitch")
    1159                            .dwattr $C$DW$40, DW_AT_TI_symbol_name("pitch")
    1160                            .dwattr $C$DW$40, DW_AT_data_member_location[DW_OP_plus_uconst 0xe]
    1161                            .dwattr $C$DW$40, DW_AT_accessibility(DW_ACCESS_public)
    1162                            .dwattr $C$DW$40, DW_AT_decl_file("..\gyro_f.h")
    1163                            .dwattr $C$DW$40, DW_AT_decl_line(0x1b)
    1164                            .dwattr $C$DW$40, DW_AT_decl_column(0x0a)
    1165                    $C$DW$41        .dwtag  DW_TAG_member
    1166                            .dwattr $C$DW$41, DW_AT_type(*$C$DW$T$16)
    1167                            .dwattr $C$DW$41, DW_AT_name("yawF")
    1168                            .dwattr $C$DW$41, DW_AT_TI_symbol_name("yawF")
    1169                            .dwattr $C$DW$41, DW_AT_data_member_location[DW_OP_plus_uconst 0x10]
    1170                            .dwattr $C$DW$41, DW_AT_accessibility(DW_ACCESS_public)
    1171                            .dwattr $C$DW$41, DW_AT_decl_file("..\gyro_f.h")
    1172                            .dwattr $C$DW$41, DW_AT_decl_line(0x1e)
    1173                            .dwattr $C$DW$41, DW_AT_decl_column(0x08)
    1174                    $C$DW$42        .dwtag  DW_TAG_member
    1175                            .dwattr $C$DW$42, DW_AT_type(*$C$DW$T$16)
    1176                            .dwattr $C$DW$42, DW_AT_name("rollF")
    1177                            .dwattr $C$DW$42, DW_AT_TI_symbol_name("rollF")
    1178                            .dwattr $C$DW$42, DW_AT_data_member_location[DW_OP_plus_uconst 0x14]
    1179                            .dwattr $C$DW$42, DW_AT_accessibility(DW_ACCESS_public)
    1180                            .dwattr $C$DW$42, DW_AT_decl_file("..\gyro_f.h")
    1181                            .dwattr $C$DW$42, DW_AT_decl_line(0x1f)
    1182                            .dwattr $C$DW$42, DW_AT_decl_column(0x08)
    1183                    $C$DW$43        .dwtag  DW_TAG_member
    1184                            .dwattr $C$DW$43, DW_AT_type(*$C$DW$T$16)
    1185                            .dwattr $C$DW$43, DW_AT_name("pitchF")
    1186                            .dwattr $C$DW$43, DW_AT_TI_symbol_name("pitchF")
    1187                            .dwattr $C$DW$43, DW_AT_data_member_location[DW_OP_plus_uconst 0x18]
    1188                            .dwattr $C$DW$43, DW_AT_accessibility(DW_ACCESS_public)
    1189                            .dwattr $C$DW$43, DW_AT_decl_file("..\gyro_f.h")
    1190                            .dwattr $C$DW$43, DW_AT_decl_line(0x20)
    1191                            .dwattr $C$DW$43, DW_AT_decl_column(0x08)
    1192                    $C$DW$44        .dwtag  DW_TAG_member
    1193                            .dwattr $C$DW$44, DW_AT_type(*$C$DW$T$16)
    1194                            .dwattr $C$DW$44, DW_AT_name("yawP")
    1195                            .dwattr $C$DW$44, DW_AT_TI_symbol_name("yawP")
    1196                            .dwattr $C$DW$44, DW_AT_data_member_location[DW_OP_plus_uconst 0x1c]
    1197                            .dwattr $C$DW$44, DW_AT_accessibility(DW_ACCESS_public)
    1198                            .dwattr $C$DW$44, DW_AT_decl_file("..\gyro_f.h")
    1199                            .dwattr $C$DW$44, DW_AT_decl_line(0x22)
    1200                            .dwattr $C$DW$44, DW_AT_decl_column(0x08)
    1201                    $C$DW$45        .dwtag  DW_TAG_member
    1202                            .dwattr $C$DW$45, DW_AT_type(*$C$DW$T$16)
    1203                            .dwattr $C$DW$45, DW_AT_name("rollP")
    1204                            .dwattr $C$DW$45, DW_AT_TI_symbol_name("rollP")
    1205                            .dwattr $C$DW$45, DW_AT_data_member_location[DW_OP_plus_uconst 0x20]
    1206                            .dwattr $C$DW$45, DW_AT_accessibility(DW_ACCESS_public)
    1207                            .dwattr $C$DW$45, DW_AT_decl_file("..\gyro_f.h")
    1208                            .dwattr $C$DW$45, DW_AT_decl_line(0x22)
    1209                            .dwattr $C$DW$45, DW_AT_decl_column(0x0e)
    1210                    $C$DW$46        .dwtag  DW_TAG_member
TI ARM Assembler PC v5.1.6 Wed Feb 10 23:08:23 2016

Tools Copyright (c) 1996-2014 Texas Instruments Incorporated
gyro_f.asm                                                           PAGE   23

    1211                            .dwattr $C$DW$46, DW_AT_type(*$C$DW$T$16)
    1212                            .dwattr $C$DW$46, DW_AT_name("pitchP")
    1213                            .dwattr $C$DW$46, DW_AT_TI_symbol_name("pitchP")
    1214                            .dwattr $C$DW$46, DW_AT_data_member_location[DW_OP_plus_uconst 0x24]
    1215                            .dwattr $C$DW$46, DW_AT_accessibility(DW_ACCESS_public)
    1216                            .dwattr $C$DW$46, DW_AT_decl_file("..\gyro_f.h")
    1217                            .dwattr $C$DW$46, DW_AT_decl_line(0x22)
    1218                            .dwattr $C$DW$46, DW_AT_decl_column(0x15)
    1219                    $C$DW$47        .dwtag  DW_TAG_member
    1220                            .dwattr $C$DW$47, DW_AT_type(*$C$DW$T$23)
    1221                            .dwattr $C$DW$47, DW_AT_name("gradiSec")
    1222                            .dwattr $C$DW$47, DW_AT_TI_symbol_name("gradiSec")
    1223                            .dwattr $C$DW$47, DW_AT_data_member_location[DW_OP_plus_uconst 0x28]
    1224                            .dwattr $C$DW$47, DW_AT_accessibility(DW_ACCESS_public)
    1225                            .dwattr $C$DW$47, DW_AT_decl_file("..\gyro_f.h")
    1226                            .dwattr $C$DW$47, DW_AT_decl_line(0x24)
    1227                            .dwattr $C$DW$47, DW_AT_decl_column(0x0a)
    1228                    $C$DW$48        .dwtag  DW_TAG_member
    1229                            .dwattr $C$DW$48, DW_AT_type(*$C$DW$T$16)
    1230                            .dwattr $C$DW$48, DW_AT_name("FS")
    1231                            .dwattr $C$DW$48, DW_AT_TI_symbol_name("FS")
    1232                            .dwattr $C$DW$48, DW_AT_data_member_location[DW_OP_plus_uconst 0x2c]
    1233                            .dwattr $C$DW$48, DW_AT_accessibility(DW_ACCESS_public)
    1234                            .dwattr $C$DW$48, DW_AT_decl_file("..\gyro_f.h")
    1235                            .dwattr $C$DW$48, DW_AT_decl_line(0x25)
    1236                            .dwattr $C$DW$48, DW_AT_decl_column(0x08)
    1237                    $C$DW$49        .dwtag  DW_TAG_member
    1238                            .dwattr $C$DW$49, DW_AT_type(*$C$DW$T$16)
    1239                            .dwattr $C$DW$49, DW_AT_name("tick")
    1240                            .dwattr $C$DW$49, DW_AT_TI_symbol_name("tick")
    1241                            .dwattr $C$DW$49, DW_AT_data_member_location[DW_OP_plus_uconst 0x30]
    1242                            .dwattr $C$DW$49, DW_AT_accessibility(DW_ACCESS_public)
    1243                            .dwattr $C$DW$49, DW_AT_decl_file("..\gyro_f.h")
    1244                            .dwattr $C$DW$49, DW_AT_decl_line(0x27)
    1245                            .dwattr $C$DW$49, DW_AT_decl_column(0x08)
    1246                    $C$DW$50        .dwtag  DW_TAG_member
    1247                            .dwattr $C$DW$50, DW_AT_type(*$C$DW$T$16)
    1248                            .dwattr $C$DW$50, DW_AT_name("kz")
    1249                            .dwattr $C$DW$50, DW_AT_TI_symbol_name("kz")
    1250                            .dwattr $C$DW$50, DW_AT_data_member_location[DW_OP_plus_uconst 0x34]
    1251                            .dwattr $C$DW$50, DW_AT_accessibility(DW_ACCESS_public)
    1252                            .dwattr $C$DW$50, DW_AT_decl_file("..\gyro_f.h")
    1253                            .dwattr $C$DW$50, DW_AT_decl_line(0x29)
    1254                            .dwattr $C$DW$50, DW_AT_decl_column(0x08)
    1255                    $C$DW$51        .dwtag  DW_TAG_member
    1256                            .dwattr $C$DW$51, DW_AT_type(*$C$DW$T$16)
    1257                            .dwattr $C$DW$51, DW_AT_name("ky")
    1258                            .dwattr $C$DW$51, DW_AT_TI_symbol_name("ky")
    1259                            .dwattr $C$DW$51, DW_AT_data_member_location[DW_OP_plus_uconst 0x38]
    1260                            .dwattr $C$DW$51, DW_AT_accessibility(DW_ACCESS_public)
    1261                            .dwattr $C$DW$51, DW_AT_decl_file("..\gyro_f.h")
    1262                            .dwattr $C$DW$51, DW_AT_decl_line(0x29)
    1263                            .dwattr $C$DW$51, DW_AT_decl_column(0x0c)
    1264                    $C$DW$52        .dwtag  DW_TAG_member
    1265                            .dwattr $C$DW$52, DW_AT_type(*$C$DW$T$16)
TI ARM Assembler PC v5.1.6 Wed Feb 10 23:08:23 2016

Tools Copyright (c) 1996-2014 Texas Instruments Incorporated
gyro_f.asm                                                           PAGE   24

    1266                            .dwattr $C$DW$52, DW_AT_name("kx")
    1267                            .dwattr $C$DW$52, DW_AT_TI_symbol_name("kx")
    1268                            .dwattr $C$DW$52, DW_AT_data_member_location[DW_OP_plus_uconst 0x3c]
    1269                            .dwattr $C$DW$52, DW_AT_accessibility(DW_ACCESS_public)
    1270                            .dwattr $C$DW$52, DW_AT_decl_file("..\gyro_f.h")
    1271                            .dwattr $C$DW$52, DW_AT_decl_line(0x29)
    1272                            .dwattr $C$DW$52, DW_AT_decl_column(0x10)
    1273                            .dwendtag $C$DW$T$24
    1274                    
    1275                            .dwattr $C$DW$T$24, DW_AT_decl_file("..\gyro_f.h")
    1276                            .dwattr $C$DW$T$24, DW_AT_decl_line(0x10)
    1277                            .dwattr $C$DW$T$24, DW_AT_decl_column(0x10)
    1278                    $C$DW$T$30      .dwtag  DW_TAG_typedef, DW_AT_name("gyro")
    1279                            .dwattr $C$DW$T$30, DW_AT_type(*$C$DW$T$24)
    1280                            .dwattr $C$DW$T$30, DW_AT_language(DW_LANG_C)
    1281                            .dwattr $C$DW$T$30, DW_AT_decl_file("..\gyro_f.h")
    1282                            .dwattr $C$DW$T$30, DW_AT_decl_line(0x2a)
    1283                            .dwattr $C$DW$T$30, DW_AT_decl_column(0x03)
    1284                    $C$DW$T$31      .dwtag  DW_TAG_pointer_type
    1285                            .dwattr $C$DW$T$31, DW_AT_type(*$C$DW$T$30)
    1286                            .dwattr $C$DW$T$31, DW_AT_address_class(0x20)
    1287                            .dwattr $C$DW$CU, DW_AT_language(DW_LANG_C)
    1288                    
    1289                    ;***************************************************************
    1290                    ;* DWARF CIE ENTRIES                                           *
    1291                    ;***************************************************************
    1292                    
    1293                    $C$DW$CIE       .dwcie 14
    1294                            .dwcfi  cfa_register, 13
    1295                            .dwcfi  cfa_offset, 0
    1296                            .dwcfi  undefined, 0
    1297                            .dwcfi  undefined, 1
    1298                            .dwcfi  undefined, 2
    1299                            .dwcfi  undefined, 3
    1300                            .dwcfi  same_value, 4
    1301                            .dwcfi  same_value, 5
    1302                            .dwcfi  same_value, 6
    1303                            .dwcfi  same_value, 7
    1304                            .dwcfi  same_value, 8
    1305                            .dwcfi  same_value, 9
    1306                            .dwcfi  same_value, 10
    1307                            .dwcfi  same_value, 11
    1308                            .dwcfi  undefined, 12
    1309                            .dwcfi  undefined, 13
    1310                            .dwcfi  undefined, 14
    1311                            .dwcfi  undefined, 14
    1312                            .dwcfi  undefined, 7
    1313                            .dwcfi  undefined, 64
    1314                            .dwcfi  undefined, 65
    1315                            .dwcfi  undefined, 66
    1316                            .dwcfi  undefined, 67
    1317                            .dwcfi  undefined, 68
    1318                            .dwcfi  undefined, 69
    1319                            .dwcfi  undefined, 70
    1320                            .dwcfi  undefined, 71
TI ARM Assembler PC v5.1.6 Wed Feb 10 23:08:23 2016

Tools Copyright (c) 1996-2014 Texas Instruments Incorporated
gyro_f.asm                                                           PAGE   25

    1321                            .dwcfi  undefined, 72
    1322                            .dwcfi  undefined, 73
    1323                            .dwcfi  undefined, 74
    1324                            .dwcfi  undefined, 75
    1325                            .dwcfi  undefined, 76
    1326                            .dwcfi  undefined, 77
    1327                            .dwcfi  undefined, 78
    1328                            .dwcfi  undefined, 79
    1329                            .dwcfi  same_value, 80
    1330                            .dwcfi  same_value, 81
    1331                            .dwcfi  same_value, 82
    1332                            .dwcfi  same_value, 83
    1333                            .dwcfi  same_value, 84
    1334                            .dwcfi  same_value, 85
    1335                            .dwcfi  same_value, 86
    1336                            .dwcfi  same_value, 87
    1337                            .dwcfi  same_value, 88
    1338                            .dwcfi  same_value, 89
    1339                            .dwcfi  same_value, 90
    1340                            .dwcfi  same_value, 91
    1341                            .dwcfi  same_value, 92
    1342                            .dwcfi  same_value, 93
    1343                            .dwcfi  same_value, 94
    1344                            .dwcfi  same_value, 95
    1345                            .dwendentry
    1346                            .dwendtag $C$DW$CU
    1347                    

--------------------------
Thumb2 Statistics
--------------------------
Number of Thumb2 ins converted to Thumb = 0 (0%)
Number of Thumb ins in input = 144 (51%)
Number of Thumb2 ins encoded as Thumb2 = 134 (100%)
Number of Thumb2 ins converted to 2 OPND Thumb = 34


No Assembly Errors, No Assembly Warnings
