TI ARM Assembler PC v5.1.6 Wed Feb 10 23:08:25 2016

Tools Copyright (c) 1996-2014 Texas Instruments Incorporated
gyro_init.asm                                                        PAGE    1

       1                    ;******************************************************************************
       2                    ;* TI ARM C/C++ Codegen                                             PC v5.1.6 *
       3                    ;* Date/Time created: Wed Feb 10 23:08:24 2016                                *
       4                    ;******************************************************************************
       5                            .compiler_opts --abi=eabi --arm_vmrs_si_workaround=on --code_state=16 --diag_wrap=off --disabl
       6 00000000                   .thumb
       7                    
       8                    $C$DW$CU        .dwtag  DW_TAG_compile_unit
       9                            .dwattr $C$DW$CU, DW_AT_name("../gyro_init.c")
      10                            .dwattr $C$DW$CU, DW_AT_producer("TI TI ARM C/C++ Codegen PC v5.1.6 Copyright (c) 1996-2014 Te
      11                            .dwattr $C$DW$CU, DW_AT_TI_version(0x01)
      12                            .dwattr $C$DW$CU, DW_AT_comp_dir("C:\ti6\workspace\tiva-pid\Debug")
      13                    
      14                    $C$DW$1 .dwtag  DW_TAG_subprogram, DW_AT_name("PRINTF")
      15                            .dwattr $C$DW$1, DW_AT_TI_symbol_name("PRINTF")
      16                            .dwattr $C$DW$1, DW_AT_declaration
      17                            .dwattr $C$DW$1, DW_AT_external
      18                            .dwattr $C$DW$1, DW_AT_decl_file("..\uartp/uartstdio.h")
      19                            .dwattr $C$DW$1, DW_AT_decl_line(0x41)
      20                            .dwattr $C$DW$1, DW_AT_decl_column(0x0d)
      21                    $C$DW$2 .dwtag  DW_TAG_formal_parameter
      22                            .dwattr $C$DW$2, DW_AT_type(*$C$DW$T$27)
      23                    $C$DW$3 .dwtag  DW_TAG_unspecified_parameters
      24                            .dwendtag $C$DW$1
      25                    
      26                    
      27                    $C$DW$4 .dwtag  DW_TAG_subprogram, DW_AT_name("I2CReceiveN")
      28                            .dwattr $C$DW$4, DW_AT_TI_symbol_name("I2CReceiveN")
      29                            .dwattr $C$DW$4, DW_AT_declaration
      30                            .dwattr $C$DW$4, DW_AT_external
      31                            .dwattr $C$DW$4, DW_AT_decl_file("..\I2C/tiva_i2c.h")
      32                            .dwattr $C$DW$4, DW_AT_decl_line(0x15)
      33                            .dwattr $C$DW$4, DW_AT_decl_column(0x07)
      34                    $C$DW$5 .dwtag  DW_TAG_formal_parameter
      35                            .dwattr $C$DW$5, DW_AT_type(*$C$DW$T$30)
      36                    $C$DW$6 .dwtag  DW_TAG_formal_parameter
      37                            .dwattr $C$DW$6, DW_AT_type(*$C$DW$T$30)
      38                    $C$DW$7 .dwtag  DW_TAG_formal_parameter
      39                            .dwattr $C$DW$7, DW_AT_type(*$C$DW$T$30)
      40                    $C$DW$8 .dwtag  DW_TAG_formal_parameter
      41                            .dwattr $C$DW$8, DW_AT_type(*$C$DW$T$31)
      42                            .dwendtag $C$DW$4
      43                    
      44                    
      45                    $C$DW$9 .dwtag  DW_TAG_subprogram, DW_AT_name("I2CReceive")
      46                            .dwattr $C$DW$9, DW_AT_TI_symbol_name("I2CReceive")
      47                            .dwattr $C$DW$9, DW_AT_type(*$C$DW$T$36)
      48                            .dwattr $C$DW$9, DW_AT_declaration
      49                            .dwattr $C$DW$9, DW_AT_external
      50                            .dwattr $C$DW$9, DW_AT_decl_file("..\I2C/tiva_i2c.h")
      51                            .dwattr $C$DW$9, DW_AT_decl_line(0x16)
      52                            .dwattr $C$DW$9, DW_AT_decl_column(0x0a)
      53                    $C$DW$10        .dwtag  DW_TAG_formal_parameter
      54                            .dwattr $C$DW$10, DW_AT_type(*$C$DW$T$36)
      55                    $C$DW$11        .dwtag  DW_TAG_formal_parameter
TI ARM Assembler PC v5.1.6 Wed Feb 10 23:08:25 2016

Tools Copyright (c) 1996-2014 Texas Instruments Incorporated
gyro_init.asm                                                        PAGE    2

      56                            .dwattr $C$DW$11, DW_AT_type(*$C$DW$T$30)
      57                            .dwendtag $C$DW$9
      58                    
      59                    
      60                    $C$DW$12        .dwtag  DW_TAG_subprogram, DW_AT_name("I2CSend")
      61                            .dwattr $C$DW$12, DW_AT_TI_symbol_name("I2CSend")
      62                            .dwattr $C$DW$12, DW_AT_declaration
      63                            .dwattr $C$DW$12, DW_AT_external
      64                            .dwattr $C$DW$12, DW_AT_decl_file("..\I2C/tiva_i2c.h")
      65                            .dwattr $C$DW$12, DW_AT_decl_line(0x17)
      66                            .dwattr $C$DW$12, DW_AT_decl_column(0x06)
      67                    $C$DW$13        .dwtag  DW_TAG_formal_parameter
      68                            .dwattr $C$DW$13, DW_AT_type(*$C$DW$T$30)
      69                    $C$DW$14        .dwtag  DW_TAG_formal_parameter
      70                            .dwattr $C$DW$14, DW_AT_type(*$C$DW$T$30)
      71                    $C$DW$15        .dwtag  DW_TAG_unspecified_parameters
      72                            .dwendtag $C$DW$12
      73                    
      74                    
      75                    $C$DW$16        .dwtag  DW_TAG_subprogram, DW_AT_name("GPIOPinWrite")
      76                            .dwattr $C$DW$16, DW_AT_TI_symbol_name("GPIOPinWrite")
      77                            .dwattr $C$DW$16, DW_AT_declaration
      78                            .dwattr $C$DW$16, DW_AT_external
      79                            .dwattr $C$DW$16, DW_AT_decl_file("C:/ti6/TivaWare_C_Series-2.1.0.12573/driverlib/gpio.h")
      80                            .dwattr $C$DW$16, DW_AT_decl_line(0x9e)
      81                            .dwattr $C$DW$16, DW_AT_decl_column(0x0d)
      82                    $C$DW$17        .dwtag  DW_TAG_formal_parameter
      83                            .dwattr $C$DW$17, DW_AT_type(*$C$DW$T$36)
      84                    $C$DW$18        .dwtag  DW_TAG_formal_parameter
      85                            .dwattr $C$DW$18, DW_AT_type(*$C$DW$T$30)
      86                    $C$DW$19        .dwtag  DW_TAG_formal_parameter
      87                            .dwattr $C$DW$19, DW_AT_type(*$C$DW$T$30)
      88                            .dwendtag $C$DW$16
      89                    
      90                    
      91                    $C$DW$20        .dwtag  DW_TAG_subprogram, DW_AT_name("SysCtlClockGet")
      92                            .dwattr $C$DW$20, DW_AT_TI_symbol_name("SysCtlClockGet")
      93                            .dwattr $C$DW$20, DW_AT_type(*$C$DW$T$36)
      94                            .dwattr $C$DW$20, DW_AT_declaration
      95                            .dwattr $C$DW$20, DW_AT_external
      96                            .dwattr $C$DW$20, DW_AT_decl_file("C:/ti6/TivaWare_C_Series-2.1.0.12573/driverlib/sysctl.h")
      97                            .dwattr $C$DW$20, DW_AT_decl_line(0x26c)
      98                            .dwattr $C$DW$20, DW_AT_decl_column(0x11)
      99                    
     100                    $C$DW$21        .dwtag  DW_TAG_subprogram, DW_AT_name("ConfigureUART")
     101                            .dwattr $C$DW$21, DW_AT_TI_symbol_name("ConfigureUART")
     102                            .dwattr $C$DW$21, DW_AT_declaration
     103                            .dwattr $C$DW$21, DW_AT_external
     104                            .dwattr $C$DW$21, DW_AT_decl_file("..\uartp/uart.h")
     105                            .dwattr $C$DW$21, DW_AT_decl_line(0x15)
     106                            .dwattr $C$DW$21, DW_AT_decl_column(0x06)
     107                    $C$DW$22        .dwtag  DW_TAG_formal_parameter
     108                            .dwattr $C$DW$22, DW_AT_type(*$C$DW$T$36)
     109                    $C$DW$23        .dwtag  DW_TAG_formal_parameter
     110                            .dwattr $C$DW$23, DW_AT_type(*$C$DW$T$10)
TI ARM Assembler PC v5.1.6 Wed Feb 10 23:08:25 2016

Tools Copyright (c) 1996-2014 Texas Instruments Incorporated
gyro_init.asm                                                        PAGE    3

     111                            .dwendtag $C$DW$21
     112                    
     113                    $C$DW$24        .dwtag  DW_TAG_variable, DW_AT_name("procCom")
     114                            .dwattr $C$DW$24, DW_AT_TI_symbol_name("procCom")
     115                            .dwattr $C$DW$24, DW_AT_type(*$C$DW$T$62)
     116                            .dwattr $C$DW$24, DW_AT_declaration
     117                            .dwattr $C$DW$24, DW_AT_external
     118                            .dwattr $C$DW$24, DW_AT_decl_file("../gyro_init.c")
     119                            .dwattr $C$DW$24, DW_AT_decl_line(0xbd)
     120                            .dwattr $C$DW$24, DW_AT_decl_column(0x15)
     121                    $C$DW$25        .dwtag  DW_TAG_variable, DW_AT_name("g_ui32Base")
     122                            .dwattr $C$DW$25, DW_AT_TI_symbol_name("g_ui32Base")
     123                            .dwattr $C$DW$25, DW_AT_type(*$C$DW$T$75)
     124                            .dwattr $C$DW$25, DW_AT_declaration
     125                            .dwattr $C$DW$25, DW_AT_external
     126                            .dwattr $C$DW$25, DW_AT_decl_file("../gyro_init.c")
     127                            .dwattr $C$DW$25, DW_AT_decl_line(0xcc)
     128                            .dwattr $C$DW$25, DW_AT_decl_column(0x1a)
     129                    $C$DW$26        .dwtag  DW_TAG_variable, DW_AT_name("g_ui32UARTBase")
     130                            .dwattr $C$DW$26, DW_AT_TI_symbol_name("g_ui32UARTBase")
     131                            .dwattr $C$DW$26, DW_AT_type(*$C$DW$T$78)
     132                            .dwattr $C$DW$26, DW_AT_declaration
     133                            .dwattr $C$DW$26, DW_AT_external
     134                            .dwattr $C$DW$26, DW_AT_decl_file("../gyro_init.c")
     135                            .dwattr $C$DW$26, DW_AT_decl_line(0xcd)
     136                            .dwattr $C$DW$26, DW_AT_decl_column(0x20)
     137                    ;       C:\ti6\ccsv6\tools\compiler\arm_5.1.6\bin\armacpia.exe -@C:\\Users\\massimo\\AppData\\Local\\T
     138 00000000                   .sect   ".text"
     139                            .clink
     140                            .thumbfunc initGyro
     141 00000000                   .thumb
     142                            .global initGyro
     143                    
     144                    $C$DW$27        .dwtag  DW_TAG_subprogram, DW_AT_name("initGyro")
     145                            .dwattr $C$DW$27, DW_AT_low_pc(initGyro)
     146                            .dwattr $C$DW$27, DW_AT_high_pc(0x00)
     147                            .dwattr $C$DW$27, DW_AT_TI_symbol_name("initGyro")
     148                            .dwattr $C$DW$27, DW_AT_external
     149                            .dwattr $C$DW$27, DW_AT_TI_begin_file("../gyro_init.c")
     150                            .dwattr $C$DW$27, DW_AT_TI_begin_line(0x1a)
     151                            .dwattr $C$DW$27, DW_AT_TI_begin_column(0x06)
     152                            .dwattr $C$DW$27, DW_AT_decl_file("../gyro_init.c")
     153                            .dwattr $C$DW$27, DW_AT_decl_line(0x1a)
     154                            .dwattr $C$DW$27, DW_AT_decl_column(0x06)
     155                            .dwattr $C$DW$27, DW_AT_TI_max_frame_size(0x10)
     156                            .dwpsn  file "../gyro_init.c",line 26,column 34,is_stmt,address initGyro,isa 1
     157                    
     158                            .dwfde $C$DW$CIE, initGyro
     159                    $C$DW$28        .dwtag  DW_TAG_formal_parameter, DW_AT_name("G")
     160                            .dwattr $C$DW$28, DW_AT_TI_symbol_name("G")
     161                            .dwattr $C$DW$28, DW_AT_type(*$C$DW$T$42)
     162                            .dwattr $C$DW$28, DW_AT_location[DW_OP_reg0]
     163                    $C$DW$29        .dwtag  DW_TAG_formal_parameter, DW_AT_name("assi")
     164                            .dwattr $C$DW$29, DW_AT_TI_symbol_name("assi")
     165                            .dwattr $C$DW$29, DW_AT_type(*$C$DW$T$6)
TI ARM Assembler PC v5.1.6 Wed Feb 10 23:08:25 2016

Tools Copyright (c) 1996-2014 Texas Instruments Incorporated
gyro_init.asm                                                        PAGE    4

     166                            .dwattr $C$DW$29, DW_AT_location[DW_OP_reg1]
     167                    
     168                    ;*****************************************************************************
     169                    ;* FUNCTION NAME: initGyro                                                   *
     170                    ;*                                                                           *
     171                    ;*   Regs Modified     : A1,A2,A3,A4,V9,SP,LR,SR,D0,D0_hi,D1,D1_hi,D2,D2_hi, *
     172                    ;*                           D3,D3_hi,D4,D4_hi,D5,D5_hi,D6,D6_hi,D7,D7_hi,   *
     173                    ;*                           FPEXC,FPSCR                                     *
     174                    ;*   Regs Used         : A1,A2,A3,A4,V9,SP,LR,SR,D0,D0_hi,D1,D1_hi,D2,D2_hi, *
     175                    ;*                           D3,D3_hi,D4,D4_hi,D5,D5_hi,D6,D6_hi,D7,D7_hi,   *
     176                    ;*                           FPEXC,FPSCR                                     *
     177                    ;*   Local Frame Size  : 0 Args + 8 Auto + 4 Save = 12 byte                  *
     178                    ;*****************************************************************************
     179 00000000           initGyro:
     180                    ;* --------------------------------------------------------------------------*
     181                            .dwcfi  cfa_offset, 0
     182 00000000 B50E              PUSH      {A2, A3, A4, LR}      ; [DPU_3_PIPE]  ; [ORIG 16-BIT INS]
     183                            .dwcfi  cfa_offset, 16
     184                            .dwcfi  save_reg_to_mem, 14, -4
     185                            .dwcfi  save_reg_to_mem, 3, -8
     186                            .dwcfi  save_reg_to_mem, 2, -12
     187                            .dwcfi  save_reg_to_mem, 1, -16
     188                    $C$DW$30        .dwtag  DW_TAG_variable, DW_AT_name("G")
     189                            .dwattr $C$DW$30, DW_AT_TI_symbol_name("G")
     190                            .dwattr $C$DW$30, DW_AT_type(*$C$DW$T$42)
     191                            .dwattr $C$DW$30, DW_AT_location[DW_OP_breg13 0]
     192                    $C$DW$31        .dwtag  DW_TAG_variable, DW_AT_name("assi")
     193                            .dwattr $C$DW$31, DW_AT_TI_symbol_name("assi")
     194                            .dwattr $C$DW$31, DW_AT_type(*$C$DW$T$6)
     195                            .dwattr $C$DW$31, DW_AT_location[DW_OP_breg13 4]
     196                    ;----------------------------------------------------------------------
     197                    ;  26 | void initGyro(gyro *G, char assi){                                     
     198                    ;  27 | volatile uint32_t valore;                                              
     199                    ;----------------------------------------------------------------------
     200 00000002 1004F88D          STRB      A2, [SP, #4]          ; [DPU_3_PIPE] |26|  ; [KEEP 32-BIT INS]
     201 00000006 9000              STR       A1, [SP, #0]          ; [DPU_3_PIPE] |26|  ; [ORIG 16-BIT INS]
     202                            .dwpsn  file "../gyro_init.c",line 28,column 2,is_stmt,isa 1
     203                    ;----------------------------------------------------------------------
     204                    ;  28 | G->IsOn = OFF;                                                         
     205                    ;----------------------------------------------------------------------
     206 00000008 9800              LDR       A1, [SP, #0]          ; [DPU_3_PIPE] |28|  ; [ORIG 16-BIT INS]
     207 0000000a 2104              MOVS      A2, #4                ; [DPU_3_PIPE] |28|  ; [ORIG 16-BIT INS]
     208 0000000c 7041              STRB      A2, [A1, #1]          ; [DPU_3_PIPE] |28|  ; [ORIG 16-BIT INS]
     209                            .dwpsn  file "../gyro_init.c",line 29,column 2,is_stmt,isa 1
     210                    ;----------------------------------------------------------------------
     211                    ;  29 | G->yaw = G->roll = G->pitch = 0;                                       
     212                    ;  30 | //chiedo il dato presente nel registro WHO_AM_I                        
     213                    ;----------------------------------------------------------------------
     214 0000000e 9900              LDR       A2, [SP, #0]          ; [DPU_3_PIPE] |29|  ; [ORIG 16-BIT INS]
     215 00000010 2000              MOVS      A1, #0                ; [DPU_3_PIPE] |29|  ; [ORIG 16-BIT INS]
     216 00000012 81C8              STRH      A1, [A2, #14]         ; [DPU_3_PIPE] |29|  ; [ORIG 16-BIT INS]
     217 00000014 9900              LDR       A2, [SP, #0]          ; [DPU_3_PIPE] |29|  ; [ORIG 16-BIT INS]
     218 00000016 8188              STRH      A1, [A2, #12]         ; [DPU_3_PIPE] |29|  ; [ORIG 16-BIT INS]
     219 00000018 9900              LDR       A2, [SP, #0]          ; [DPU_3_PIPE] |29|  ; [ORIG 16-BIT INS]
     220 0000001a 8148              STRH      A1, [A2, #10]         ; [DPU_3_PIPE] |29|  ; [ORIG 16-BIT INS]
TI ARM Assembler PC v5.1.6 Wed Feb 10 23:08:25 2016

Tools Copyright (c) 1996-2014 Texas Instruments Incorporated
gyro_init.asm                                                        PAGE    5

     221                            .dwpsn  file "../gyro_init.c",line 31,column 2,is_stmt,isa 1
     222                    ;----------------------------------------------------------------------
     223                    ;  31 | if (I2CReceive(GYRO_ADDR, WHO_AM_I) == 0xD4){                          
     224                    ;----------------------------------------------------------------------
     225 0000001c 210F              MOVS      A2, #15               ; [DPU_3_PIPE] |31|  ; [ORIG 16-BIT INS]
     226 0000001e 206B              MOVS      A1, #107              ; [DPU_3_PIPE] |31|  ; [ORIG 16-BIT INS]
     227                    $C$DW$32        .dwtag  DW_TAG_TI_branch
     228                            .dwattr $C$DW$32, DW_AT_low_pc(0x00)
     229                            .dwattr $C$DW$32, DW_AT_name("I2CReceive")
     230                            .dwattr $C$DW$32, DW_AT_TI_call
     231 00000020 FFFEF7FF!         BL        I2CReceive            ; [DPU_3_PIPE] |31|  ; [KEEP 32-BIT INS]
     232                            ; CALL OCCURS {I2CReceive }      ; [] |31| 
     233 00000024 28D4              CMP       A1, #212              ; [DPU_3_PIPE] |31|  ; [ORIG 16-BIT INS]
     234 00000026 D10D              BNE       ||$C$L1||             ; [DPU_3_PIPE] |31|  ; [ORIG 16-BIT INS]
     235                            ; BRANCHCC OCCURS {||$C$L1||}    ; [] |31| 
     236                    ;* --------------------------------------------------------------------------*
     237                            .dwpsn  file "../gyro_init.c",line 32,column 3,is_stmt,isa 1
     238                    ;----------------------------------------------------------------------
     239                    ;  32 | GPIOPinWrite(GPIO_PORTF_BASE, BLUE_LED, BLUE_LED);                     
     240                    ;----------------------------------------------------------------------
     241 00000028 48CA              LDR       A1, $C$CON1           ; [DPU_3_PIPE] |32|  ; [ORIG 16-BIT INS]
     242 0000002a 2104              MOVS      A2, #4                ; [DPU_3_PIPE] |32|  ; [ORIG 16-BIT INS]
     243 0000002c 2204              MOVS      A3, #4                ; [DPU_3_PIPE] |32|  ; [ORIG 16-BIT INS]
     244                    $C$DW$33        .dwtag  DW_TAG_TI_branch
     245                            .dwattr $C$DW$33, DW_AT_low_pc(0x00)
     246                            .dwattr $C$DW$33, DW_AT_name("GPIOPinWrite")
     247                            .dwattr $C$DW$33, DW_AT_TI_call
     248 0000002e FFFEF7FF!         BL        GPIOPinWrite          ; [DPU_3_PIPE] |32|  ; [KEEP 32-BIT INS]
     249                            ; CALL OCCURS {GPIOPinWrite }    ; [] |32| 
     250                            .dwpsn  file "../gyro_init.c",line 33,column 3,is_stmt,isa 1
     251                    ;----------------------------------------------------------------------
     252                    ;  33 | G->IsPresent = OK;                                                     
     253                    ;  34 | /// imposta gli assi                                                   
     254                    ;  35 | /// per il drone, stato = ALL (0x7)                                    
     255                    ;  36 | /// per il rover stato = Z (0x4);                                      
     256                    ;----------------------------------------------------------------------
     257 00000032 9800              LDR       A1, [SP, #0]          ; [DPU_3_PIPE] |33|  ; [ORIG 16-BIT INS]
     258 00000034 2100              MOVS      A2, #0                ; [DPU_3_PIPE] |33|  ; [ORIG 16-BIT INS]
     259 00000036 7001              STRB      A2, [A1, #0]          ; [DPU_3_PIPE] |33|  ; [ORIG 16-BIT INS]
     260                            .dwpsn  file "../gyro_init.c",line 37,column 3,is_stmt,isa 1
     261                    ;----------------------------------------------------------------------
     262                    ;  37 | setupAssi(G, assi);                                                    
     263                    ;----------------------------------------------------------------------
     264 00000038 1004F89D          LDRB      A2, [SP, #4]          ; [DPU_3_PIPE] |37|  ; [KEEP 32-BIT INS]
     265 0000003c 9800              LDR       A1, [SP, #0]          ; [DPU_3_PIPE] |37|  ; [ORIG 16-BIT INS]
     266                    $C$DW$34        .dwtag  DW_TAG_TI_branch
     267                            .dwattr $C$DW$34, DW_AT_low_pc(0x00)
     268                            .dwattr $C$DW$34, DW_AT_name("setupAssi")
     269                            .dwattr $C$DW$34, DW_AT_TI_call
     270 0000003e F809F000          BL        setupAssi             ; [DPU_3_PIPE] |37|  ; [KEEP 32-BIT INS]
     271                            ; CALL OCCURS {setupAssi }       ; [] |37| 
     272                            .dwpsn  file "../gyro_init.c",line 38,column 2,is_stmt,isa 1
     273                    ;----------------------------------------------------------------------
     274                    ;  39 | else{                                                                  
     275                    ;----------------------------------------------------------------------
TI ARM Assembler PC v5.1.6 Wed Feb 10 23:08:25 2016

Tools Copyright (c) 1996-2014 Texas Instruments Incorporated
gyro_init.asm                                                        PAGE    6

     276 00000042 E006              B         ||$C$L2||             ; [DPU_3_PIPE] |38|  ; [ORIG 16-BIT INS]
     277                            ; BRANCH OCCURS {||$C$L2||}      ; [] |38| 
     278                    ;* --------------------------------------------------------------------------*
     279 00000044           ||$C$L1||:    
     280                            .dwpsn  file "../gyro_init.c",line 40,column 3,is_stmt,isa 1
     281                    ;----------------------------------------------------------------------
     282                    ;  40 | G->IsPresent = NOT_PRESENT;                                            
     283                    ;----------------------------------------------------------------------
     284 00000044 9800              LDR       A1, [SP, #0]          ; [DPU_3_PIPE] |40|  ; [ORIG 16-BIT INS]
     285 00000046 2103              MOVS      A2, #3                ; [DPU_3_PIPE] |40|  ; [ORIG 16-BIT INS]
     286 00000048 7001              STRB      A2, [A1, #0]          ; [DPU_3_PIPE] |40|  ; [ORIG 16-BIT INS]
     287                            .dwpsn  file "../gyro_init.c",line 41,column 3,is_stmt,isa 1
     288                    ;----------------------------------------------------------------------
     289                    ;  41 | PRINTF("Giroscopio non presente\n");                                   
     290                    ;----------------------------------------------------------------------
     291 0000004a A095              ADR       A1, $C$SL1            ; [DPU_3_PIPE] |41|  ; [ORIG 16-BIT INS]
     292                    $C$DW$35        .dwtag  DW_TAG_TI_branch
     293                            .dwattr $C$DW$35, DW_AT_low_pc(0x00)
     294                            .dwattr $C$DW$35, DW_AT_name("PRINTF")
     295                            .dwattr $C$DW$35, DW_AT_TI_call
     296 0000004c FFFEF7FF!         BL        PRINTF                ; [DPU_3_PIPE] |41|  ; [KEEP 32-BIT INS]
     297                            ; CALL OCCURS {PRINTF }          ; [] |41| 
     298                            .dwpsn  file "../gyro_init.c",line 42,column 3,is_stmt,isa 1
     299                    ;----------------------------------------------------------------------
     300                    ;  42 | return;                                                                
     301                    ;----------------------------------------------------------------------
     302 00000050 E7FF              B         ||$C$L2||             ; [DPU_3_PIPE] |42|  ; [ORIG 16-BIT INS]
     303                            ; BRANCH OCCURS {||$C$L2||}      ; [] |42| 
     304                    ;* --------------------------------------------------------------------------*
     305                    ;* --------------------------------------------------------------------------*
     306                    ||$C$L2||:    
     307                    $C$DW$36        .dwtag  DW_TAG_TI_branch
     308                            .dwattr $C$DW$36, DW_AT_low_pc(0x00)
     309                            .dwattr $C$DW$36, DW_AT_TI_return
     310 00000052 BD0E              POP       {A2, A3, A4, PC}      ; [DPU_3_PIPE]  ; [ORIG 16-BIT INS]
     311                            .dwcfi  cfa_offset, 0
     312                            ; BRANCH OCCURS                  ; [] 
     313                            .dwattr $C$DW$27, DW_AT_TI_end_file("../gyro_init.c")
     314                            .dwattr $C$DW$27, DW_AT_TI_end_line(0x2c)
     315                            .dwattr $C$DW$27, DW_AT_TI_end_column(0x01)
     316                            .dwendentry
     317                            .dwendtag $C$DW$27
     318                    
     319 00000054                   .sect   ".text"
     320                            .clink
     321                            .thumbfunc setupAssi
     322 00000054                   .thumb
     323                            .global setupAssi
     324                    
     325                    $C$DW$37        .dwtag  DW_TAG_subprogram, DW_AT_name("setupAssi")
     326                            .dwattr $C$DW$37, DW_AT_low_pc(setupAssi)
     327                            .dwattr $C$DW$37, DW_AT_high_pc(0x00)
     328                            .dwattr $C$DW$37, DW_AT_TI_symbol_name("setupAssi")
     329                            .dwattr $C$DW$37, DW_AT_external
     330                            .dwattr $C$DW$37, DW_AT_TI_begin_file("../gyro_init.c")
TI ARM Assembler PC v5.1.6 Wed Feb 10 23:08:25 2016

Tools Copyright (c) 1996-2014 Texas Instruments Incorporated
gyro_init.asm                                                        PAGE    7

     331                            .dwattr $C$DW$37, DW_AT_TI_begin_line(0x30)
     332                            .dwattr $C$DW$37, DW_AT_TI_begin_column(0x06)
     333                            .dwattr $C$DW$37, DW_AT_decl_file("../gyro_init.c")
     334                            .dwattr $C$DW$37, DW_AT_decl_line(0x30)
     335                            .dwattr $C$DW$37, DW_AT_decl_column(0x06)
     336                            .dwattr $C$DW$37, DW_AT_TI_max_frame_size(0x10)
     337                            .dwpsn  file "../gyro_init.c",line 48,column 36,is_stmt,address setupAssi,isa 1
     338                    
     339                            .dwfde $C$DW$CIE, setupAssi
     340                    $C$DW$38        .dwtag  DW_TAG_formal_parameter, DW_AT_name("G")
     341                            .dwattr $C$DW$38, DW_AT_TI_symbol_name("G")
     342                            .dwattr $C$DW$38, DW_AT_type(*$C$DW$T$42)
     343                            .dwattr $C$DW$38, DW_AT_location[DW_OP_reg0]
     344                    $C$DW$39        .dwtag  DW_TAG_formal_parameter, DW_AT_name("stato")
     345                            .dwattr $C$DW$39, DW_AT_TI_symbol_name("stato")
     346                            .dwattr $C$DW$39, DW_AT_type(*$C$DW$T$6)
     347                            .dwattr $C$DW$39, DW_AT_location[DW_OP_reg1]
     348                    
     349                    ;*****************************************************************************
     350                    ;* FUNCTION NAME: setupAssi                                                  *
     351                    ;*                                                                           *
     352                    ;*   Regs Modified     : A1,A2,A3,A4,V9,SP,LR,SR,D0,D0_hi,D1,D1_hi,D2,D2_hi, *
     353                    ;*                           D3,D3_hi,D4,D4_hi,D5,D5_hi,D6,D6_hi,D7,D7_hi,   *
     354                    ;*                           FPEXC,FPSCR                                     *
     355                    ;*   Regs Used         : A1,A2,A3,A4,V9,SP,LR,SR,D0,D0_hi,D1,D1_hi,D2,D2_hi, *
     356                    ;*                           D3,D3_hi,D4,D4_hi,D5,D5_hi,D6,D6_hi,D7,D7_hi,   *
     357                    ;*                           FPEXC,FPSCR                                     *
     358                    ;*   Local Frame Size  : 0 Args + 12 Auto + 4 Save = 16 byte                 *
     359                    ;*****************************************************************************
     360 00000054           setupAssi:
     361                    ;* --------------------------------------------------------------------------*
     362                            .dwcfi  cfa_offset, 0
     363 00000054 B50E              PUSH      {A2, A3, A4, LR}      ; [DPU_3_PIPE]  ; [ORIG 16-BIT INS]
     364                            .dwcfi  cfa_offset, 16
     365                            .dwcfi  save_reg_to_mem, 14, -4
     366                            .dwcfi  save_reg_to_mem, 3, -8
     367                            .dwcfi  save_reg_to_mem, 2, -12
     368                            .dwcfi  save_reg_to_mem, 1, -16
     369                    $C$DW$40        .dwtag  DW_TAG_variable, DW_AT_name("G")
     370                            .dwattr $C$DW$40, DW_AT_TI_symbol_name("G")
     371                            .dwattr $C$DW$40, DW_AT_type(*$C$DW$T$42)
     372                            .dwattr $C$DW$40, DW_AT_location[DW_OP_breg13 0]
     373                    $C$DW$41        .dwtag  DW_TAG_variable, DW_AT_name("stato")
     374                            .dwattr $C$DW$41, DW_AT_TI_symbol_name("stato")
     375                            .dwattr $C$DW$41, DW_AT_type(*$C$DW$T$6)
     376                            .dwattr $C$DW$41, DW_AT_location[DW_OP_breg13 4]
     377                    $C$DW$42        .dwtag  DW_TAG_variable, DW_AT_name("mask")
     378                            .dwattr $C$DW$42, DW_AT_TI_symbol_name("mask")
     379                            .dwattr $C$DW$42, DW_AT_type(*$C$DW$T$6)
     380                            .dwattr $C$DW$42, DW_AT_location[DW_OP_breg13 5]
     381                    $C$DW$43        .dwtag  DW_TAG_variable, DW_AT_name("valore")
     382                            .dwattr $C$DW$43, DW_AT_TI_symbol_name("valore")
     383                            .dwattr $C$DW$43, DW_AT_type(*$C$DW$T$36)
     384                            .dwattr $C$DW$43, DW_AT_location[DW_OP_breg13 8]
     385                    ;----------------------------------------------------------------------
TI ARM Assembler PC v5.1.6 Wed Feb 10 23:08:25 2016

Tools Copyright (c) 1996-2014 Texas Instruments Incorporated
gyro_init.asm                                                        PAGE    8

     386                    ;  48 | void setupAssi(gyro *G, char stato){                                   
     387                    ;  50 | char mask;                                                             
     388                    ;  51 | uint32_t valore;                                                       
     389                    ;----------------------------------------------------------------------
     390 00000056 1004F88D          STRB      A2, [SP, #4]          ; [DPU_3_PIPE] |48|  ; [KEEP 32-BIT INS]
     391 0000005a 9000              STR       A1, [SP, #0]          ; [DPU_3_PIPE] |48|  ; [ORIG 16-BIT INS]
     392                            .dwpsn  file "../gyro_init.c",line 52,column 2,is_stmt,isa 1
     393                    ;----------------------------------------------------------------------
     394                    ;  52 | G->x0 = G->y0 = G->z0 = 32767;                                         
     395                    ;----------------------------------------------------------------------
     396 0000005c 9900              LDR       A2, [SP, #0]          ; [DPU_3_PIPE] |52|  ; [ORIG 16-BIT INS]
     397 0000005e 70FFF647          MOV       A1, #32767            ; [DPU_3_PIPE] |52|  ; [KEEP 32-BIT INS]
     398 00000062 80C8              STRH      A1, [A2, #6]          ; [DPU_3_PIPE] |52|  ; [ORIG 16-BIT INS]
     399 00000064 9900              LDR       A2, [SP, #0]          ; [DPU_3_PIPE] |52|  ; [ORIG 16-BIT INS]
     400 00000066 8088              STRH      A1, [A2, #4]          ; [DPU_3_PIPE] |52|  ; [ORIG 16-BIT INS]
     401 00000068 9900              LDR       A2, [SP, #0]          ; [DPU_3_PIPE] |52|  ; [ORIG 16-BIT INS]
     402 0000006a 8048              STRH      A1, [A2, #2]          ; [DPU_3_PIPE] |52|  ; [ORIG 16-BIT INS]
     403                            .dwpsn  file "../gyro_init.c",line 53,column 2,is_stmt,isa 1
     404                    ;----------------------------------------------------------------------
     405                    ;  53 | G->pitchF = G->rollF = G->yawF = G->pitchP = G->rollP = G->yawP = 0.0; 
     406                    ;----------------------------------------------------------------------
     407 0000006c 4893              LDR       A1, $C$FL1            ; [DPU_3_PIPE] |53|  ; [ORIG 16-BIT INS]
     408 0000006e 0A10EE00          VMOV      S0, A1                ; [DPU_LIN_PIPE] |53|  ; [KEEP 32-BIT INS]
     409 00000072 9800              LDR       A1, [SP, #0]          ; [DPU_3_PIPE] |53|  ; [ORIG 16-BIT INS]
     410 00000074 0A07ED80          VSTR.32   S0, [A1, #28]         ; [DPU_LIN_PIPE] |53|  ; [KEEP 32-BIT INS]
     411 00000078 9800              LDR       A1, [SP, #0]          ; [DPU_3_PIPE] |53|  ; [ORIG 16-BIT INS]
     412 0000007a 0A08ED80          VSTR.32   S0, [A1, #32]         ; [DPU_LIN_PIPE] |53|  ; [KEEP 32-BIT INS]
     413 0000007e 9800              LDR       A1, [SP, #0]          ; [DPU_3_PIPE] |53|  ; [ORIG 16-BIT INS]
     414 00000080 0A09ED80          VSTR.32   S0, [A1, #36]         ; [DPU_LIN_PIPE] |53|  ; [KEEP 32-BIT INS]
     415 00000084 9800              LDR       A1, [SP, #0]          ; [DPU_3_PIPE] |53|  ; [ORIG 16-BIT INS]
     416 00000086 0A04ED80          VSTR.32   S0, [A1, #16]         ; [DPU_LIN_PIPE] |53|  ; [KEEP 32-BIT INS]
     417 0000008a 9800              LDR       A1, [SP, #0]          ; [DPU_3_PIPE] |53|  ; [ORIG 16-BIT INS]
     418 0000008c 0A05ED80          VSTR.32   S0, [A1, #20]         ; [DPU_LIN_PIPE] |53|  ; [KEEP 32-BIT INS]
     419 00000090 9800              LDR       A1, [SP, #0]          ; [DPU_3_PIPE] |53|  ; [ORIG 16-BIT INS]
     420 00000092 0A06ED80          VSTR.32   S0, [A1, #24]         ; [DPU_LIN_PIPE] |53|  ; [KEEP 32-BIT INS]
     421                            .dwpsn  file "../gyro_init.c",line 54,column 2,is_stmt,isa 1
     422                    ;----------------------------------------------------------------------
     423                    ;  54 | G->gradiSec = 0;                                                       
     424                    ;----------------------------------------------------------------------
     425 00000096 9800              LDR       A1, [SP, #0]          ; [DPU_3_PIPE] |54|  ; [ORIG 16-BIT INS]
     426 00000098 2100              MOVS      A2, #0                ; [DPU_3_PIPE] |54|  ; [ORIG 16-BIT INS]
     427 0000009a 8501              STRH      A2, [A1, #40]         ; [DPU_3_PIPE] |54|  ; [ORIG 16-BIT INS]
     428                            .dwpsn  file "../gyro_init.c",line 55,column 2,is_stmt,isa 1
     429                    ;----------------------------------------------------------------------
     430                    ;  55 | G->kz = 1.1688;                                                        
     431                    ;  56 | /// lo stato e' cosi' interpretato: bit0: x; bit1: y; bit2: z.         
     432                    ;  57 | // scrivo nel registro 0x20 il valore 0x0C, cioe' banda minima, modulo
     433                    ;     | on e assi on                                                           
     434                    ;  58 | /// sintassi: indirizzo slave, num parm, indirizzo reg, valore da scriv
     435                    ;     | ere                                                                    
     436                    ;----------------------------------------------------------------------
     437 0000009c 49C8              LDR       A2, $C$FL2            ; [DPU_3_PIPE] |55|  ; [ORIG 16-BIT INS]
     438 0000009e 9800              LDR       A1, [SP, #0]          ; [DPU_3_PIPE] |55|  ; [ORIG 16-BIT INS]
     439 000000a0 6341              STR       A2, [A1, #52]         ; [DPU_3_PIPE] |55|  ; [ORIG 16-BIT INS]
     440                            .dwpsn  file "../gyro_init.c",line 59,column 2,is_stmt,isa 1
TI ARM Assembler PC v5.1.6 Wed Feb 10 23:08:25 2016

Tools Copyright (c) 1996-2014 Texas Instruments Incorporated
gyro_init.asm                                                        PAGE    9

     441                    ;----------------------------------------------------------------------
     442                    ;  59 | mask = 0x08| stato;                                                    
     443                    ;----------------------------------------------------------------------
     444 000000a2 0004F89D          LDRB      A1, [SP, #4]          ; [DPU_3_PIPE] |59|  ; [KEEP 32-BIT INS]
     445 000000a6 0008F040          ORR       A1, A1, #8            ; [DPU_3_PIPE] |59|  ; [KEEP 32-BIT INS]
     446 000000aa 0005F88D          STRB      A1, [SP, #5]          ; [DPU_3_PIPE] |59|  ; [KEEP 32-BIT INS]
     447                            .dwpsn  file "../gyro_init.c",line 60,column 2,is_stmt,isa 1
     448                    ;----------------------------------------------------------------------
     449                    ;  60 | I2CSend(GYRO_ADDR, 2, CTRL_REG1, mask);                                
     450                    ;----------------------------------------------------------------------
     451 000000ae 3005F89D          LDRB      A4, [SP, #5]          ; [DPU_3_PIPE] |60|  ; [KEEP 32-BIT INS]
     452 000000b2 2220              MOVS      A3, #32               ; [DPU_3_PIPE] |60|  ; [ORIG 16-BIT INS]
     453 000000b4 206B              MOVS      A1, #107              ; [DPU_3_PIPE] |60|  ; [ORIG 16-BIT INS]
     454 000000b6 2102              MOVS      A2, #2                ; [DPU_3_PIPE] |60|  ; [ORIG 16-BIT INS]
     455                    $C$DW$44        .dwtag  DW_TAG_TI_branch
     456                            .dwattr $C$DW$44, DW_AT_low_pc(0x00)
     457                            .dwattr $C$DW$44, DW_AT_name("I2CSend")
     458                            .dwattr $C$DW$44, DW_AT_TI_call
     459 000000b8 FFFEF7FF!         BL        I2CSend               ; [DPU_3_PIPE] |60|  ; [KEEP 32-BIT INS]
     460                            ; CALL OCCURS {I2CSend }         ; [] |60| 
     461                            .dwpsn  file "../gyro_init.c",line 61,column 2,is_stmt,isa 1
     462                    ;----------------------------------------------------------------------
     463                    ;  61 | if(I2CReceive(GYRO_ADDR, CTRL_REG1) == mask){                          
     464                    ;----------------------------------------------------------------------
     465 000000bc 206B              MOVS      A1, #107              ; [DPU_3_PIPE] |61|  ; [ORIG 16-BIT INS]
     466 000000be 2120              MOVS      A2, #32               ; [DPU_3_PIPE] |61|  ; [ORIG 16-BIT INS]
     467                    $C$DW$45        .dwtag  DW_TAG_TI_branch
     468                            .dwattr $C$DW$45, DW_AT_low_pc(0x00)
     469                            .dwattr $C$DW$45, DW_AT_name("I2CReceive")
     470                            .dwattr $C$DW$45, DW_AT_TI_call
     471 000000c0 FFFEF7FF!         BL        I2CReceive            ; [DPU_3_PIPE] |61|  ; [KEEP 32-BIT INS]
     472                            ; CALL OCCURS {I2CReceive }      ; [] |61| 
     473 000000c4 1005F89D          LDRB      A2, [SP, #5]          ; [DPU_3_PIPE] |61|  ; [KEEP 32-BIT INS]
     474 000000c8 4281              CMP       A2, A1                ; [DPU_3_PIPE] |61|  ; [ORIG 16-BIT INS]
     475 000000ca D10B              BNE       ||$C$L3||             ; [DPU_3_PIPE] |61|  ; [ORIG 16-BIT INS]
     476                            ; BRANCHCC OCCURS {||$C$L3||}    ; [] |61| 
     477                    ;* --------------------------------------------------------------------------*
     478                            .dwpsn  file "../gyro_init.c",line 62,column 3,is_stmt,isa 1
     479                    ;----------------------------------------------------------------------
     480                    ;  62 | GPIOPinWrite(GPIO_PORTF_BASE, GPIO_PIN_1, GPIO_PIN_1);                 
     481                    ;----------------------------------------------------------------------
     482 000000cc 48A1              LDR       A1, $C$CON1           ; [DPU_3_PIPE] |62|  ; [ORIG 16-BIT INS]
     483 000000ce 2102              MOVS      A2, #2                ; [DPU_3_PIPE] |62|  ; [ORIG 16-BIT INS]
     484 000000d0 2202              MOVS      A3, #2                ; [DPU_3_PIPE] |62|  ; [ORIG 16-BIT INS]
     485                    $C$DW$46        .dwtag  DW_TAG_TI_branch
     486                            .dwattr $C$DW$46, DW_AT_low_pc(0x00)
     487                            .dwattr $C$DW$46, DW_AT_name("GPIOPinWrite")
     488                            .dwattr $C$DW$46, DW_AT_TI_call
     489 000000d2 FFFEF7FF!         BL        GPIOPinWrite          ; [DPU_3_PIPE] |62|  ; [KEEP 32-BIT INS]
     490                            ; CALL OCCURS {GPIOPinWrite }    ; [] |62| 
     491                            .dwpsn  file "../gyro_init.c",line 63,column 3,is_stmt,isa 1
     492                    ;----------------------------------------------------------------------
     493                    ;  63 | G->IsOn = ON;                                                          
     494                    ;----------------------------------------------------------------------
     495 000000d6 9800              LDR       A1, [SP, #0]          ; [DPU_3_PIPE] |63|  ; [ORIG 16-BIT INS]
TI ARM Assembler PC v5.1.6 Wed Feb 10 23:08:25 2016

Tools Copyright (c) 1996-2014 Texas Instruments Incorporated
gyro_init.asm                                                        PAGE   10

     496 000000d8 2102              MOVS      A2, #2                ; [DPU_3_PIPE] |63|  ; [ORIG 16-BIT INS]
     497 000000da 7041              STRB      A2, [A1, #1]          ; [DPU_3_PIPE] |63|  ; [ORIG 16-BIT INS]
     498                            .dwpsn  file "../gyro_init.c",line 64,column 3,is_stmt,isa 1
     499                    ;----------------------------------------------------------------------
     500                    ;  64 | G->asseOn = stato;                                                     
     501                    ;  67 | /// set FS to 500 degree per sec.                                      
     502                    ;----------------------------------------------------------------------
     503 000000dc 9900              LDR       A2, [SP, #0]          ; [DPU_3_PIPE] |64|  ; [ORIG 16-BIT INS]
     504 000000de 0004F89D          LDRB      A1, [SP, #4]          ; [DPU_3_PIPE] |64|  ; [KEEP 32-BIT INS]
     505 000000e2 7208              STRB      A1, [A2, #8]          ; [DPU_3_PIPE] |64|  ; [ORIG 16-BIT INS]
     506                    ;* --------------------------------------------------------------------------*
     507 000000e4           ||$C$L3||:    
     508                            .dwpsn  file "../gyro_init.c",line 68,column 2,is_stmt,isa 1
     509                    ;----------------------------------------------------------------------
     510                    ;  68 | I2CSend(GYRO_ADDR, 2, CTRL_REG4, FS_500);                              
     511                    ;----------------------------------------------------------------------
     512 000000e4 206B              MOVS      A1, #107              ; [DPU_3_PIPE] |68|  ; [ORIG 16-BIT INS]
     513 000000e6 2102              MOVS      A2, #2                ; [DPU_3_PIPE] |68|  ; [ORIG 16-BIT INS]
     514 000000e8 2223              MOVS      A3, #35               ; [DPU_3_PIPE] |68|  ; [ORIG 16-BIT INS]
     515 000000ea 2310              MOVS      A4, #16               ; [DPU_3_PIPE] |68|  ; [ORIG 16-BIT INS]
     516                    $C$DW$47        .dwtag  DW_TAG_TI_branch
     517                            .dwattr $C$DW$47, DW_AT_low_pc(0x00)
     518                            .dwattr $C$DW$47, DW_AT_name("I2CSend")
     519                            .dwattr $C$DW$47, DW_AT_TI_call
     520 000000ec FFFEF7FF!         BL        I2CSend               ; [DPU_3_PIPE] |68|  ; [KEEP 32-BIT INS]
     521                            ; CALL OCCURS {I2CSend }         ; [] |68| 
     522                            .dwpsn  file "../gyro_init.c",line 69,column 2,is_stmt,isa 1
     523                    ;----------------------------------------------------------------------
     524                    ;  69 | G->gradiSec = 500;                                                     
     525                    ;----------------------------------------------------------------------
     526 000000f0 9800              LDR       A1, [SP, #0]          ; [DPU_3_PIPE] |69|  ; [ORIG 16-BIT INS]
     527 000000f2 71FAF44F          MOV       A2, #500              ; [DPU_3_PIPE] |69|  ; [KEEP 32-BIT INS]
     528 000000f6 8501              STRH      A2, [A1, #40]         ; [DPU_3_PIPE] |69|  ; [ORIG 16-BIT INS]
     529                            .dwpsn  file "../gyro_init.c",line 70,column 2,is_stmt,isa 1
     530                    ;----------------------------------------------------------------------
     531                    ;  70 | G->FS = (float) 500 / 32768;                                           
     532                    ;----------------------------------------------------------------------
     533 000000f8 49CB              LDR       A2, $C$FL3            ; [DPU_3_PIPE] |70|  ; [ORIG 16-BIT INS]
     534 000000fa 9800              LDR       A1, [SP, #0]          ; [DPU_3_PIPE] |70|  ; [ORIG 16-BIT INS]
     535 000000fc 62C1              STR       A2, [A1, #44]         ; [DPU_3_PIPE] |70|  ; [ORIG 16-BIT INS]
     536                            .dwpsn  file "../gyro_init.c",line 71,column 2,is_stmt,isa 1
     537                    ;----------------------------------------------------------------------
     538                    ;  71 | valore = I2CReceive(GYRO_ADDR,CTRL_REG4);                              
     539                    ;----------------------------------------------------------------------
     540 000000fe 206B              MOVS      A1, #107              ; [DPU_3_PIPE] |71|  ; [ORIG 16-BIT INS]
     541 00000100 2123              MOVS      A2, #35               ; [DPU_3_PIPE] |71|  ; [ORIG 16-BIT INS]
     542                    $C$DW$48        .dwtag  DW_TAG_TI_branch
     543                            .dwattr $C$DW$48, DW_AT_low_pc(0x00)
     544                            .dwattr $C$DW$48, DW_AT_name("I2CReceive")
     545                            .dwattr $C$DW$48, DW_AT_TI_call
     546 00000102 FFFEF7FF!         BL        I2CReceive            ; [DPU_3_PIPE] |71|  ; [KEEP 32-BIT INS]
     547                            ; CALL OCCURS {I2CReceive }      ; [] |71| 
     548 00000106 9002              STR       A1, [SP, #8]          ; [DPU_3_PIPE] |71|  ; [ORIG 16-BIT INS]
     549                            .dwpsn  file "../gyro_init.c",line 72,column 2,is_stmt,isa 1
     550                    ;----------------------------------------------------------------------
TI ARM Assembler PC v5.1.6 Wed Feb 10 23:08:25 2016

Tools Copyright (c) 1996-2014 Texas Instruments Incorporated
gyro_init.asm                                                        PAGE   11

     551                    ;  72 | PRINTF("Lettura dal REG4 %d\n", valore);                               
     552                    ;----------------------------------------------------------------------
     553 00000108 9902              LDR       A2, [SP, #8]          ; [DPU_3_PIPE] |72|  ; [ORIG 16-BIT INS]
     554 0000010a A0C1              ADR       A1, $C$SL2            ; [DPU_3_PIPE] |72|  ; [ORIG 16-BIT INS]
     555                    $C$DW$49        .dwtag  DW_TAG_TI_branch
     556                            .dwattr $C$DW$49, DW_AT_low_pc(0x00)
     557                            .dwattr $C$DW$49, DW_AT_name("PRINTF")
     558                            .dwattr $C$DW$49, DW_AT_TI_call
     559 0000010c FFFEF7FF!         BL        PRINTF                ; [DPU_3_PIPE] |72|  ; [KEEP 32-BIT INS]
     560                            ; CALL OCCURS {PRINTF }          ; [] |72| 
     561                            .dwpsn  file "../gyro_init.c",line 73,column 1,is_stmt,isa 1
     562                    $C$DW$50        .dwtag  DW_TAG_TI_branch
     563                            .dwattr $C$DW$50, DW_AT_low_pc(0x00)
     564                            .dwattr $C$DW$50, DW_AT_TI_return
     565 00000110 BD0E              POP       {A2, A3, A4, PC}      ; [DPU_3_PIPE]  ; [ORIG 16-BIT INS]
     566                            .dwcfi  cfa_offset, 0
     567                            ; BRANCH OCCURS                  ; [] 
     568                            .dwattr $C$DW$37, DW_AT_TI_end_file("../gyro_init.c")
     569                            .dwattr $C$DW$37, DW_AT_TI_end_line(0x49)
     570                            .dwattr $C$DW$37, DW_AT_TI_end_column(0x01)
     571                            .dwendentry
     572                            .dwendtag $C$DW$37
     573                    
     574 00000112                   .sect   ".text"
     575                            .clink
     576                            .thumbfunc azzeraAssi
     577 00000112                   .thumb
     578                            .global azzeraAssi
     579                    
     580                    $C$DW$51        .dwtag  DW_TAG_subprogram, DW_AT_name("azzeraAssi")
     581                            .dwattr $C$DW$51, DW_AT_low_pc(azzeraAssi)
     582                            .dwattr $C$DW$51, DW_AT_high_pc(0x00)
     583                            .dwattr $C$DW$51, DW_AT_TI_symbol_name("azzeraAssi")
     584                            .dwattr $C$DW$51, DW_AT_external
     585                            .dwattr $C$DW$51, DW_AT_TI_begin_file("../gyro_init.c")
     586                            .dwattr $C$DW$51, DW_AT_TI_begin_line(0x4d)
     587                            .dwattr $C$DW$51, DW_AT_TI_begin_column(0x06)
     588                            .dwattr $C$DW$51, DW_AT_decl_file("../gyro_init.c")
     589                            .dwattr $C$DW$51, DW_AT_decl_line(0x4d)
     590                            .dwattr $C$DW$51, DW_AT_decl_column(0x06)
     591                            .dwattr $C$DW$51, DW_AT_TI_max_frame_size(0x28)
     592                            .dwpsn  file "../gyro_init.c",line 77,column 25,is_stmt,address azzeraAssi,isa 1
     593                    
     594                            .dwfde $C$DW$CIE, azzeraAssi
     595                    $C$DW$52        .dwtag  DW_TAG_formal_parameter, DW_AT_name("G")
     596                            .dwattr $C$DW$52, DW_AT_TI_symbol_name("G")
     597                            .dwattr $C$DW$52, DW_AT_type(*$C$DW$T$42)
     598                            .dwattr $C$DW$52, DW_AT_location[DW_OP_reg0]
     599                    
     600                    ;*****************************************************************************
     601                    ;* FUNCTION NAME: azzeraAssi                                                 *
     602                    ;*                                                                           *
     603                    ;*   Regs Modified     : A1,A2,A3,A4,V9,SP,LR,SR,D0,D0_hi,D1,D1_hi,D2,D2_hi, *
     604                    ;*                           D3,D3_hi,D4,D4_hi,D5,D5_hi,D6,D6_hi,D7,D7_hi,   *
     605                    ;*                           FPEXC,FPSCR                                     *
TI ARM Assembler PC v5.1.6 Wed Feb 10 23:08:25 2016

Tools Copyright (c) 1996-2014 Texas Instruments Incorporated
gyro_init.asm                                                        PAGE   12

     606                    ;*   Regs Used         : A1,A2,A3,A4,V9,SP,LR,SR,D0,D0_hi,D1,D1_hi,D2,D2_hi, *
     607                    ;*                           D3,D3_hi,D4,D4_hi,D5,D5_hi,D6,D6_hi,D7,D7_hi,   *
     608                    ;*                           FPEXC,FPSCR                                     *
     609                    ;*   Local Frame Size  : 0 Args + 32 Auto + 4 Save = 36 byte                 *
     610                    ;*****************************************************************************
     611 00000112           azzeraAssi:
     612                    ;* --------------------------------------------------------------------------*
     613                            .dwcfi  cfa_offset, 0
     614 00000112 B500              PUSH      {LR}                  ; [DPU_3_PIPE]  ; [ORIG 16-BIT INS]
     615                            .dwcfi  cfa_offset, 4
     616                            .dwcfi  save_reg_to_mem, 14, -4
     617 00000114 0D24F1AD          SUB       SP, SP, #36           ; [DPU_3_PIPE]  ; [KEEP 32-BIT INS]
     618                            .dwcfi  cfa_offset, 40
     619                    $C$DW$53        .dwtag  DW_TAG_variable, DW_AT_name("G")
     620                            .dwattr $C$DW$53, DW_AT_TI_symbol_name("G")
     621                            .dwattr $C$DW$53, DW_AT_type(*$C$DW$T$42)
     622                            .dwattr $C$DW$53, DW_AT_location[DW_OP_breg13 0]
     623                    $C$DW$54        .dwtag  DW_TAG_variable, DW_AT_name("conteggio")
     624                            .dwattr $C$DW$54, DW_AT_TI_symbol_name("conteggio")
     625                            .dwattr $C$DW$54, DW_AT_type(*$C$DW$T$36)
     626                            .dwattr $C$DW$54, DW_AT_location[DW_OP_breg13 4]
     627                    $C$DW$55        .dwtag  DW_TAG_variable, DW_AT_name("valore")
     628                            .dwattr $C$DW$55, DW_AT_TI_symbol_name("valore")
     629                            .dwattr $C$DW$55, DW_AT_type(*$C$DW$T$36)
     630                            .dwattr $C$DW$55, DW_AT_location[DW_OP_breg13 8]
     631                    $C$DW$56        .dwtag  DW_TAG_variable, DW_AT_name("i")
     632                            .dwattr $C$DW$56, DW_AT_TI_symbol_name("i")
     633                            .dwattr $C$DW$56, DW_AT_type(*$C$DW$T$36)
     634                            .dwattr $C$DW$56, DW_AT_location[DW_OP_breg13 12]
     635                    $C$DW$57        .dwtag  DW_TAG_variable, DW_AT_name("x")
     636                            .dwattr $C$DW$57, DW_AT_TI_symbol_name("x")
     637                            .dwattr $C$DW$57, DW_AT_type(*$C$DW$T$23)
     638                            .dwattr $C$DW$57, DW_AT_location[DW_OP_breg13 16]
     639                    $C$DW$58        .dwtag  DW_TAG_variable, DW_AT_name("y")
     640                            .dwattr $C$DW$58, DW_AT_TI_symbol_name("y")
     641                            .dwattr $C$DW$58, DW_AT_type(*$C$DW$T$23)
     642                            .dwattr $C$DW$58, DW_AT_location[DW_OP_breg13 18]
     643                    $C$DW$59        .dwtag  DW_TAG_variable, DW_AT_name("z")
     644                            .dwattr $C$DW$59, DW_AT_TI_symbol_name("z")
     645                            .dwattr $C$DW$59, DW_AT_type(*$C$DW$T$23)
     646                            .dwattr $C$DW$59, DW_AT_location[DW_OP_breg13 20]
     647                    $C$DW$60        .dwtag  DW_TAG_variable, DW_AT_name("buffer")
     648                            .dwattr $C$DW$60, DW_AT_TI_symbol_name("buffer")
     649                            .dwattr $C$DW$60, DW_AT_type(*$C$DW$T$54)
     650                            .dwattr $C$DW$60, DW_AT_location[DW_OP_breg13 22]
     651                    ;----------------------------------------------------------------------
     652                    ;  77 | void azzeraAssi(gyro *G){                                              
     653                    ;----------------------------------------------------------------------
     654 00000118 9000              STR       A1, [SP, #0]          ; [DPU_3_PIPE] |77|  ; [ORIG 16-BIT INS]
     655                            .dwpsn  file "../gyro_init.c",line 78,column 21,is_stmt,isa 1
     656                    ;----------------------------------------------------------------------
     657                    ;  78 | uint32_t conteggio = 0, valore, i ;                                    
     658                    ;----------------------------------------------------------------------
     659 0000011a 2000              MOVS      A1, #0                ; [DPU_3_PIPE] |78|  ; [ORIG 16-BIT INS]
     660 0000011c 9001              STR       A1, [SP, #4]          ; [DPU_3_PIPE] |78|  ; [ORIG 16-BIT INS]
TI ARM Assembler PC v5.1.6 Wed Feb 10 23:08:25 2016

Tools Copyright (c) 1996-2014 Texas Instruments Incorporated
gyro_init.asm                                                        PAGE   13

     661                            .dwpsn  file "../gyro_init.c",line 79,column 12,is_stmt,isa 1
     662                    ;----------------------------------------------------------------------
     663                    ;  79 | int16_t x = 0, y = 0, z = 0;                                           
     664                    ;----------------------------------------------------------------------
     665 0000011e 2000              MOVS      A1, #0                ; [DPU_3_PIPE] |79|  ; [ORIG 16-BIT INS]
     666 00000120 0010F8AD          STRH      A1, [SP, #16]         ; [DPU_3_PIPE] |79|  ; [KEEP 32-BIT INS]
     667                            .dwpsn  file "../gyro_init.c",line 79,column 19,is_stmt,isa 1
     668                    ;----------------------------------------------------------------------
     669                    ;  80 | uint8_t buffer[8];                                                     
     670                    ;----------------------------------------------------------------------
     671 00000124 2000              MOVS      A1, #0                ; [DPU_3_PIPE] |79|  ; [ORIG 16-BIT INS]
     672 00000126 0012F8AD          STRH      A1, [SP, #18]         ; [DPU_3_PIPE] |79|  ; [KEEP 32-BIT INS]
     673                            .dwpsn  file "../gyro_init.c",line 79,column 26,is_stmt,isa 1
     674 0000012a 2000              MOVS      A1, #0                ; [DPU_3_PIPE] |79|  ; [ORIG 16-BIT INS]
     675 0000012c 0014F8AD          STRH      A1, [SP, #20]         ; [DPU_3_PIPE] |79|  ; [KEEP 32-BIT INS]
     676                            .dwpsn  file "../gyro_init.c",line 81,column 2,is_stmt,isa 1
     677                    ;----------------------------------------------------------------------
     678                    ;  81 | switch(G->asseOn){                                                     
     679                    ;  82 | case ALL_AXIS:                                                         
     680                    ;  83 |         /// assi ON                                                    
     681                    ;----------------------------------------------------------------------
     682 00000130 E0AC              B         ||$C$L14||            ; [DPU_3_PIPE] |81|  ; [ORIG 16-BIT INS]
     683                            ; BRANCH OCCURS {||$C$L14||}     ; [] |81| 
     684                    ;* --------------------------------------------------------------------------*
     685 00000132           ||$C$L4||:    
     686                            .dwpsn  file "../gyro_init.c",line 84,column 9,is_stmt,isa 1
     687                    ;----------------------------------------------------------------------
     688                    ;  84 | while(conteggio < 32){                                                 
     689                    ;  85 |         /// effettua 32 letture e calcola la media                     
     690                    ;----------------------------------------------------------------------
     691 00000132 9801              LDR       A1, [SP, #4]          ; [DPU_3_PIPE] |84|  ; [ORIG 16-BIT INS]
     692 00000134 2820              CMP       A1, #32               ; [DPU_3_PIPE] |84|  ; [ORIG 16-BIT INS]
     693 00000136 D245              BCS       ||$C$L8||             ; [DPU_3_PIPE] |84|  ; [ORIG 16-BIT INS]
     694                            ; BRANCHCC OCCURS {||$C$L8||}    ; [] |84| 
     695                    ;* --------------------------------------------------------------------------*
     696                    ;*   BEGIN LOOP ||$C$L5||
     697                    ;*
     698                    ;*   Loop source line                : 84
     699                    ;*   Loop closing brace source line  : 97
     700                    ;*   Known Minimum Trip Count        : 1
     701                    ;*   Known Maximum Trip Count        : 4294967295
     702                    ;*   Known Max Trip Count Factor     : 1
     703                    ;* --------------------------------------------------------------------------*
     704 00000138           ||$C$L5||:    
     705                            .dwpsn  file "../gyro_init.c",line 86,column 4,is_stmt,isa 1
     706                    ;----------------------------------------------------------------------
     707                    ;  86 | valore = I2CReceive(GYRO_ADDR,STATUS_REG);                             
     708                    ;  87 | //PRINTF("REG_STAT 0x%x\n", valore);                                   
     709                    ;----------------------------------------------------------------------
     710 00000138 206B              MOVS      A1, #107              ; [DPU_3_PIPE] |86|  ; [ORIG 16-BIT INS]
     711 0000013a 2127              MOVS      A2, #39               ; [DPU_3_PIPE] |86|  ; [ORIG 16-BIT INS]
     712                    $C$DW$61        .dwtag  DW_TAG_TI_branch
     713                            .dwattr $C$DW$61, DW_AT_low_pc(0x00)
     714                            .dwattr $C$DW$61, DW_AT_name("I2CReceive")
     715                            .dwattr $C$DW$61, DW_AT_TI_call
TI ARM Assembler PC v5.1.6 Wed Feb 10 23:08:25 2016

Tools Copyright (c) 1996-2014 Texas Instruments Incorporated
gyro_init.asm                                                        PAGE   14

     716 0000013c FFFEF7FF!         BL        I2CReceive            ; [DPU_3_PIPE] |86|  ; [KEEP 32-BIT INS]
     717                            ; CALL OCCURS {I2CReceive }      ; [] |86| 
     718 00000140 9002              STR       A1, [SP, #8]          ; [DPU_3_PIPE] |86|  ; [ORIG 16-BIT INS]
     719                            .dwpsn  file "../gyro_init.c",line 88,column 4,is_stmt,isa 1
     720                    ;----------------------------------------------------------------------
     721                    ;  88 | if (valore != 0){                                                      
     722                    ;  89 |         /// tutti gli assi on                                          
     723                    ;----------------------------------------------------------------------
     724 00000142 9802              LDR       A1, [SP, #8]          ; [DPU_3_PIPE] |88|  ; [ORIG 16-BIT INS]
     725 00000144 2800              CMP       A1, #0                ; [DPU_3_PIPE] |88|  ; [ORIG 16-BIT INS]
     726 00000146 D03A              BEQ       ||$C$L7||             ; [DPU_3_PIPE] |88|  ; [ORIG 16-BIT INS]
     727                            ; BRANCHCC OCCURS {||$C$L7||}    ; [] |88| 
     728                    ;* --------------------------------------------------------------------------*
     729                            .dwpsn  file "../gyro_init.c",line 90,column 5,is_stmt,isa 1
     730                    ;----------------------------------------------------------------------
     731                    ;  90 | I2CReceiveN(GYRO_ADDR,OUT_X_L | MUL_READ , 6, buffer);                 
     732                    ;----------------------------------------------------------------------
     733 00000148 206B              MOVS      A1, #107              ; [DPU_3_PIPE] |90|  ; [ORIG 16-BIT INS]
     734 0000014a 21A8              MOVS      A2, #168              ; [DPU_3_PIPE] |90|  ; [ORIG 16-BIT INS]
     735 0000014c 2206              MOVS      A3, #6                ; [DPU_3_PIPE] |90|  ; [ORIG 16-BIT INS]
     736 0000014e 0316F10D          ADD       A4, SP, #22           ; [DPU_3_PIPE] |90|  ; [KEEP 32-BIT INS]
     737                    $C$DW$62        .dwtag  DW_TAG_TI_branch
     738                            .dwattr $C$DW$62, DW_AT_low_pc(0x00)
     739                            .dwattr $C$DW$62, DW_AT_name("I2CReceiveN")
     740                            .dwattr $C$DW$62, DW_AT_TI_call
     741 00000152 FFFEF7FF!         BL        I2CReceiveN           ; [DPU_3_PIPE] |90|  ; [KEEP 32-BIT INS]
     742                            ; CALL OCCURS {I2CReceiveN }     ; [] |90| 
     743                            .dwpsn  file "../gyro_init.c",line 91,column 5,is_stmt,isa 1
     744                    ;----------------------------------------------------------------------
     745                    ;  91 | x += (int16_t)((buffer[1]<< 8) + buffer[0]);                           
     746                    ;----------------------------------------------------------------------
     747 00000156 2017F89D          LDRB      A3, [SP, #23]         ; [DPU_3_PIPE] |91|  ; [KEEP 32-BIT INS]
     748 0000015a 0016F89D          LDRB      A1, [SP, #22]         ; [DPU_3_PIPE] |91|  ; [KEEP 32-BIT INS]
     749 0000015e 1010F9BD          LDRSH     A2, [SP, #16]         ; [DPU_3_PIPE] |91|  ; [KEEP 32-BIT INS]
     750 00000162 2002EB00          ADD       A1, A1, A3, LSL #8    ; [DPU_3_PIPE] |91|  ; [KEEP 32-BIT INS]
     751 00000166 B200              SXTH      A1, A1                ; [DPU_3_PIPE] |91|  ; [ORIG 16-BIT INS]
     752 00000168 1840              ADDS      A1, A1, A2            ; [DPU_3_PIPE] |91|  ; [ORIG 16-BIT INS]
     753 0000016a 0010F8AD          STRH      A1, [SP, #16]         ; [DPU_3_PIPE] |91|  ; [KEEP 32-BIT INS]
     754                            .dwpsn  file "../gyro_init.c",line 92,column 5,is_stmt,isa 1
     755                    ;----------------------------------------------------------------------
     756                    ;  92 | y += (int)((buffer[3]<< 8) + buffer[2]);                               
     757                    ;----------------------------------------------------------------------
     758 0000016e 0012F9BD          LDRSH     A1, [SP, #18]         ; [DPU_3_PIPE] |92|  ; [KEEP 32-BIT INS]
     759 00000172 2019F89D          LDRB      A3, [SP, #25]         ; [DPU_3_PIPE] |92|  ; [KEEP 32-BIT INS]
     760 00000176 1018F89D          LDRB      A2, [SP, #24]         ; [DPU_3_PIPE] |92|  ; [KEEP 32-BIT INS]
     761 0000017a 2002EB00          ADD       A1, A1, A3, LSL #8    ; [DPU_3_PIPE] |92|  ; [KEEP 32-BIT INS]
     762 0000017e 1809              ADDS      A2, A2, A1            ; [DPU_3_PIPE] |92|  ; [ORIG 16-BIT INS]
     763 00000180 1012F8AD          STRH      A2, [SP, #18]         ; [DPU_3_PIPE] |92|  ; [KEEP 32-BIT INS]
     764                            .dwpsn  file "../gyro_init.c",line 93,column 5,is_stmt,isa 1
     765                    ;----------------------------------------------------------------------
     766                    ;  93 | z += (int)((buffer[5]<< 8) + buffer[4]);                               
     767                    ;----------------------------------------------------------------------
     768 00000184 0014F9BD          LDRSH     A1, [SP, #20]         ; [DPU_3_PIPE] |93|  ; [KEEP 32-BIT INS]
     769 00000188 201BF89D          LDRB      A3, [SP, #27]         ; [DPU_3_PIPE] |93|  ; [KEEP 32-BIT INS]
     770 0000018c 101AF89D          LDRB      A2, [SP, #26]         ; [DPU_3_PIPE] |93|  ; [KEEP 32-BIT INS]
TI ARM Assembler PC v5.1.6 Wed Feb 10 23:08:25 2016

Tools Copyright (c) 1996-2014 Texas Instruments Incorporated
gyro_init.asm                                                        PAGE   15

     771 00000190 2002EB00          ADD       A1, A1, A3, LSL #8    ; [DPU_3_PIPE] |93|  ; [KEEP 32-BIT INS]
     772 00000194 1809              ADDS      A2, A2, A1            ; [DPU_3_PIPE] |93|  ; [ORIG 16-BIT INS]
     773 00000196 1014F8AD          STRH      A2, [SP, #20]         ; [DPU_3_PIPE] |93|  ; [KEEP 32-BIT INS]
     774                            .dwpsn  file "../gyro_init.c",line 94,column 5,is_stmt,isa 1
     775                    ;----------------------------------------------------------------------
     776                    ;  94 | conteggio++;                                                           
     777                    ;----------------------------------------------------------------------
     778 0000019a 9801              LDR       A1, [SP, #4]          ; [DPU_3_PIPE] |94|  ; [ORIG 16-BIT INS]
     779 0000019c 1C40              ADDS      A1, A1, #1            ; [DPU_3_PIPE] |94|  ; [ORIG 16-BIT INS]
     780 0000019e 9001              STR       A1, [SP, #4]          ; [DPU_3_PIPE] |94|  ; [ORIG 16-BIT INS]
     781                            .dwpsn  file "../gyro_init.c",line 95,column 10,is_stmt,isa 1
     782                    ;----------------------------------------------------------------------
     783                    ;  95 | for (i = 0; i < 50000; i++);                                           
     784                    ;----------------------------------------------------------------------
     785 000001a0 2000              MOVS      A1, #0                ; [DPU_3_PIPE] |95|  ; [ORIG 16-BIT INS]
     786 000001a2 9003              STR       A1, [SP, #12]         ; [DPU_3_PIPE] |95|  ; [ORIG 16-BIT INS]
     787                            .dwpsn  file "../gyro_init.c",line 95,column 17,is_stmt,isa 1
     788                    ;----------------------------------------------------------------------
     789                    ;  98 | /// calcola la media: divide  per 32                                   
     790                    ;----------------------------------------------------------------------
     791 000001a4 9803              LDR       A1, [SP, #12]         ; [DPU_3_PIPE] |95|  ; [ORIG 16-BIT INS]
     792 000001a6 3150F24C          MOV       A2, #50000            ; [DPU_3_PIPE] |95|  ; [KEEP 32-BIT INS]
     793 000001aa 4281              CMP       A2, A1                ; [DPU_3_PIPE] |95|  ; [ORIG 16-BIT INS]
     794 000001ac D907              BLS       ||$C$L7||             ; [DPU_3_PIPE] |95|  ; [ORIG 16-BIT INS]
     795                            ; BRANCHCC OCCURS {||$C$L7||}    ; [] |95| 
     796                    ;* --------------------------------------------------------------------------*
     797                    ;*   BEGIN LOOP ||$C$L6||
     798                    ;*
     799                    ;*   Loop source line                : 95
     800                    ;*   Loop closing brace source line  : 95
     801                    ;*   Known Minimum Trip Count        : 1
     802                    ;*   Known Maximum Trip Count        : 4294967295
     803                    ;*   Known Max Trip Count Factor     : 1
     804                    ;* --------------------------------------------------------------------------*
     805 000001ae           ||$C$L6||:    
     806                            .dwpsn  file "../gyro_init.c",line 95,column 28,is_stmt,isa 1
     807 000001ae 9803              LDR       A1, [SP, #12]         ; [DPU_3_PIPE] |95|  ; [ORIG 16-BIT INS]
     808 000001b0 1C40              ADDS      A1, A1, #1            ; [DPU_3_PIPE] |95|  ; [ORIG 16-BIT INS]
     809 000001b2 9003              STR       A1, [SP, #12]         ; [DPU_3_PIPE] |95|  ; [ORIG 16-BIT INS]
     810                            .dwpsn  file "../gyro_init.c",line 95,column 17,is_stmt,isa 1
     811 000001b4 9803              LDR       A1, [SP, #12]         ; [DPU_3_PIPE] |95|  ; [ORIG 16-BIT INS]
     812 000001b6 3150F24C          MOV       A2, #50000            ; [DPU_3_PIPE] |95|  ; [KEEP 32-BIT INS]
     813 000001ba 4281              CMP       A2, A1                ; [DPU_3_PIPE] |95|  ; [ORIG 16-BIT INS]
     814 000001bc D8F7              BHI       ||$C$L6||             ; [DPU_3_PIPE] |95|  ; [ORIG 16-BIT INS]
     815                            ; BRANCHCC OCCURS {||$C$L6||}    ; [] |95| 
     816                    ;* --------------------------------------------------------------------------*
     817 000001be           ||$C$L7||:    
     818                            .dwpsn  file "../gyro_init.c",line 84,column 9,is_stmt,isa 1
     819 000001be 9801              LDR       A1, [SP, #4]          ; [DPU_3_PIPE] |84|  ; [ORIG 16-BIT INS]
     820 000001c0 2820              CMP       A1, #32               ; [DPU_3_PIPE] |84|  ; [ORIG 16-BIT INS]
     821 000001c2 D3B9              BCC       ||$C$L5||             ; [DPU_3_PIPE] |84|  ; [ORIG 16-BIT INS]
     822                            ; BRANCHCC OCCURS {||$C$L5||}    ; [] |84| 
     823                    ;* --------------------------------------------------------------------------*
     824 000001c4           ||$C$L8||:    
     825                            .dwpsn  file "../gyro_init.c",line 99,column 3,is_stmt,isa 1
TI ARM Assembler PC v5.1.6 Wed Feb 10 23:08:25 2016

Tools Copyright (c) 1996-2014 Texas Instruments Incorporated
gyro_init.asm                                                        PAGE   16

     826                    ;----------------------------------------------------------------------
     827                    ;  99 | x /= 32;                                                               
     828                    ;----------------------------------------------------------------------
     829 000001c4 0010F9BD          LDRSH     A1, [SP, #16]         ; [DPU_3_PIPE] |99|  ; [KEEP 32-BIT INS]
     830 000001c8 1101              ASRS      A2, A1, #4            ; [DPU_3_PIPE] |99|  ; [ORIG 16-BIT INS]
     831 000001ca 60D1EB00          ADD       A1, A1, A2, LSR #27   ; [DPU_3_PIPE] |99|  ; [KEEP 32-BIT INS]
     832 000001ce 1140              ASRS      A1, A1, #5            ; [DPU_3_PIPE] |99|  ; [ORIG 16-BIT INS]
     833 000001d0 0010F8AD          STRH      A1, [SP, #16]         ; [DPU_3_PIPE] |99|  ; [KEEP 32-BIT INS]
     834                            .dwpsn  file "../gyro_init.c",line 100,column 3,is_stmt,isa 1
     835                    ;----------------------------------------------------------------------
     836                    ; 100 | y /= 32;                                                               
     837                    ;----------------------------------------------------------------------
     838 000001d4 0012F9BD          LDRSH     A1, [SP, #18]         ; [DPU_3_PIPE] |100|  ; [KEEP 32-BIT INS]
     839 000001d8 1101              ASRS      A2, A1, #4            ; [DPU_3_PIPE] |100|  ; [ORIG 16-BIT INS]
     840 000001da 60D1EB00          ADD       A1, A1, A2, LSR #27   ; [DPU_3_PIPE] |100|  ; [KEEP 32-BIT INS]
     841 000001de 1140              ASRS      A1, A1, #5            ; [DPU_3_PIPE] |100|  ; [ORIG 16-BIT INS]
     842 000001e0 0012F8AD          STRH      A1, [SP, #18]         ; [DPU_3_PIPE] |100|  ; [KEEP 32-BIT INS]
     843                            .dwpsn  file "../gyro_init.c",line 101,column 3,is_stmt,isa 1
     844                    ;----------------------------------------------------------------------
     845                    ; 101 | z /= 32;                                                               
     846                    ; 102 | /// assegna il valore nella struct G                                   
     847                    ;----------------------------------------------------------------------
     848 000001e4 0014F9BD          LDRSH     A1, [SP, #20]         ; [DPU_3_PIPE] |101|  ; [KEEP 32-BIT INS]
     849 000001e8 1101              ASRS      A2, A1, #4            ; [DPU_3_PIPE] |101|  ; [ORIG 16-BIT INS]
     850 000001ea 60D1EB00          ADD       A1, A1, A2, LSR #27   ; [DPU_3_PIPE] |101|  ; [KEEP 32-BIT INS]
     851 000001ee 1140              ASRS      A1, A1, #5            ; [DPU_3_PIPE] |101|  ; [ORIG 16-BIT INS]
     852 000001f0 0014F8AD          STRH      A1, [SP, #20]         ; [DPU_3_PIPE] |101|  ; [KEEP 32-BIT INS]
     853                            .dwpsn  file "../gyro_init.c",line 103,column 3,is_stmt,isa 1
     854                    ;----------------------------------------------------------------------
     855                    ; 103 | G->x0 = x;                                                             
     856                    ;----------------------------------------------------------------------
     857 000001f4 9900              LDR       A2, [SP, #0]          ; [DPU_3_PIPE] |103|  ; [ORIG 16-BIT INS]
     858 000001f6 0010F8BD          LDRH      A1, [SP, #16]         ; [DPU_3_PIPE] |103|  ; [KEEP 32-BIT INS]
     859 000001fa 8048              STRH      A1, [A2, #2]          ; [DPU_3_PIPE] |103|  ; [ORIG 16-BIT INS]
     860                            .dwpsn  file "../gyro_init.c",line 104,column 3,is_stmt,isa 1
     861                    ;----------------------------------------------------------------------
     862                    ; 104 | G->y0 = y;                                                             
     863                    ;----------------------------------------------------------------------
     864 000001fc 9900              LDR       A2, [SP, #0]          ; [DPU_3_PIPE] |104|  ; [ORIG 16-BIT INS]
     865 000001fe 0012F8BD          LDRH      A1, [SP, #18]         ; [DPU_3_PIPE] |104|  ; [KEEP 32-BIT INS]
     866 00000202 8088              STRH      A1, [A2, #4]          ; [DPU_3_PIPE] |104|  ; [ORIG 16-BIT INS]
     867                            .dwpsn  file "../gyro_init.c",line 105,column 3,is_stmt,isa 1
     868                    ;----------------------------------------------------------------------
     869                    ; 105 | G->z0 = z;                                                             
     870                    ;----------------------------------------------------------------------
     871 00000204 9900              LDR       A2, [SP, #0]          ; [DPU_3_PIPE] |105|  ; [ORIG 16-BIT INS]
     872 00000206 0014F8BD          LDRH      A1, [SP, #20]         ; [DPU_3_PIPE] |105|  ; [KEEP 32-BIT INS]
     873 0000020a 80C8              STRH      A1, [A2, #6]          ; [DPU_3_PIPE] |105|  ; [ORIG 16-BIT INS]
     874                            .dwpsn  file "../gyro_init.c",line 106,column 2,is_stmt,isa 1
     875                    ;----------------------------------------------------------------------
     876                    ; 106 | break;                                                                 
     877                    ; 108 | case Z_AXIS:                                                           
     878                    ; 109 |         /// asse z ON                                                  
     879                    ;----------------------------------------------------------------------
     880 0000020c E046              B         ||$C$L15||            ; [DPU_3_PIPE] |106|  ; [ORIG 16-BIT INS]
TI ARM Assembler PC v5.1.6 Wed Feb 10 23:08:25 2016

Tools Copyright (c) 1996-2014 Texas Instruments Incorporated
gyro_init.asm                                                        PAGE   17

     881                            ; BRANCH OCCURS {||$C$L15||}     ; [] |106| 
     882                    ;* --------------------------------------------------------------------------*
     883 0000020e           ||$C$L9||:    
     884                            .dwpsn  file "../gyro_init.c",line 110,column 9,is_stmt,isa 1
     885                    ;----------------------------------------------------------------------
     886                    ; 110 | while(conteggio < 32){                                                 
     887                    ; 111 |         /// effettua 32 letture e calcola la media                     
     888                    ;----------------------------------------------------------------------
     889 0000020e 9801              LDR       A1, [SP, #4]          ; [DPU_3_PIPE] |110|  ; [ORIG 16-BIT INS]
     890 00000210 2820              CMP       A1, #32               ; [DPU_3_PIPE] |110|  ; [ORIG 16-BIT INS]
     891 00000212 D22E              BCS       ||$C$L13||            ; [DPU_3_PIPE] |110|  ; [ORIG 16-BIT INS]
     892                            ; BRANCHCC OCCURS {||$C$L13||}   ; [] |110| 
     893                    ;* --------------------------------------------------------------------------*
     894                    ;*   BEGIN LOOP ||$C$L10||
     895                    ;*
     896                    ;*   Loop source line                : 110
     897                    ;*   Loop closing brace source line  : 121
     898                    ;*   Known Minimum Trip Count        : 1
     899                    ;*   Known Maximum Trip Count        : 4294967295
     900                    ;*   Known Max Trip Count Factor     : 1
     901                    ;* --------------------------------------------------------------------------*
     902 00000214           ||$C$L10||:    
     903                            .dwpsn  file "../gyro_init.c",line 112,column 4,is_stmt,isa 1
     904                    ;----------------------------------------------------------------------
     905                    ; 112 | valore = I2CReceive(GYRO_ADDR,STATUS_REG);                             
     906                    ; 113 | //PRINTF("REG_STAT 0x%x\n", valore);                                   
     907                    ;----------------------------------------------------------------------
     908 00000214 206B              MOVS      A1, #107              ; [DPU_3_PIPE] |112|  ; [ORIG 16-BIT INS]
     909 00000216 2127              MOVS      A2, #39               ; [DPU_3_PIPE] |112|  ; [ORIG 16-BIT INS]
     910                    $C$DW$63        .dwtag  DW_TAG_TI_branch
     911                            .dwattr $C$DW$63, DW_AT_low_pc(0x00)
     912                            .dwattr $C$DW$63, DW_AT_name("I2CReceive")
     913                            .dwattr $C$DW$63, DW_AT_TI_call
     914 00000218 FFFEF7FF!         BL        I2CReceive            ; [DPU_3_PIPE] |112|  ; [KEEP 32-BIT INS]
     915                            ; CALL OCCURS {I2CReceive }      ; [] |112| 
     916 0000021c 9002              STR       A1, [SP, #8]          ; [DPU_3_PIPE] |112|  ; [ORIG 16-BIT INS]
     917                            .dwpsn  file "../gyro_init.c",line 114,column 4,is_stmt,isa 1
     918                    ;----------------------------------------------------------------------
     919                    ; 114 | if (valore != 0){                                                      
     920                    ; 115 |         /// asse z ON                                                  
     921                    ;----------------------------------------------------------------------
     922 0000021e 9802              LDR       A1, [SP, #8]          ; [DPU_3_PIPE] |114|  ; [ORIG 16-BIT INS]
     923 00000220 B320              CBZ       A1, ||$C$L12||        ; []  ; [ORIG 16-BIT INS]
     924                            ; BRANCHCC OCCURS {||$C$L12||}   ; [] |114| 
     925                    ;* --------------------------------------------------------------------------*
     926                            .dwpsn  file "../gyro_init.c",line 116,column 5,is_stmt,isa 1
     927                    ;----------------------------------------------------------------------
     928                    ; 116 | I2CReceiveN(GYRO_ADDR,OUT_Z_L | MUL_READ , 2, buffer);                 
     929                    ;----------------------------------------------------------------------
     930 00000222 206B              MOVS      A1, #107              ; [DPU_3_PIPE] |116|  ; [ORIG 16-BIT INS]
     931 00000224 21AC              MOVS      A2, #172              ; [DPU_3_PIPE] |116|  ; [ORIG 16-BIT INS]
     932 00000226 2202              MOVS      A3, #2                ; [DPU_3_PIPE] |116|  ; [ORIG 16-BIT INS]
     933 00000228 0316F10D          ADD       A4, SP, #22           ; [DPU_3_PIPE] |116|  ; [KEEP 32-BIT INS]
     934                    $C$DW$64        .dwtag  DW_TAG_TI_branch
     935                            .dwattr $C$DW$64, DW_AT_low_pc(0x00)
TI ARM Assembler PC v5.1.6 Wed Feb 10 23:08:25 2016

Tools Copyright (c) 1996-2014 Texas Instruments Incorporated
gyro_init.asm                                                        PAGE   18

     936                            .dwattr $C$DW$64, DW_AT_name("I2CReceiveN")
     937                            .dwattr $C$DW$64, DW_AT_TI_call
     938 0000022c FFFEF7FF!         BL        I2CReceiveN           ; [DPU_3_PIPE] |116|  ; [KEEP 32-BIT INS]
     939                            ; CALL OCCURS {I2CReceiveN }     ; [] |116| 
     940                            .dwpsn  file "../gyro_init.c",line 117,column 5,is_stmt,isa 1
     941                    ;----------------------------------------------------------------------
     942                    ; 117 | z += (int16_t)((buffer[1]<< 8) + buffer[0]);                           
     943                    ;----------------------------------------------------------------------
     944 00000230 2017F89D          LDRB      A3, [SP, #23]         ; [DPU_3_PIPE] |117|  ; [KEEP 32-BIT INS]
     945 00000234 0016F89D          LDRB      A1, [SP, #22]         ; [DPU_3_PIPE] |117|  ; [KEEP 32-BIT INS]
     946 00000238 1014F9BD          LDRSH     A2, [SP, #20]         ; [DPU_3_PIPE] |117|  ; [KEEP 32-BIT INS]
     947 0000023c 2002EB00          ADD       A1, A1, A3, LSL #8    ; [DPU_3_PIPE] |117|  ; [KEEP 32-BIT INS]
     948 00000240 B200              SXTH      A1, A1                ; [DPU_3_PIPE] |117|  ; [ORIG 16-BIT INS]
     949 00000242 1840              ADDS      A1, A1, A2            ; [DPU_3_PIPE] |117|  ; [ORIG 16-BIT INS]
     950 00000244 0014F8AD          STRH      A1, [SP, #20]         ; [DPU_3_PIPE] |117|  ; [KEEP 32-BIT INS]
     951                            .dwpsn  file "../gyro_init.c",line 118,column 5,is_stmt,isa 1
     952                    ;----------------------------------------------------------------------
     953                    ; 118 | conteggio++;                                                           
     954                    ;----------------------------------------------------------------------
     955 00000248 9801              LDR       A1, [SP, #4]          ; [DPU_3_PIPE] |118|  ; [ORIG 16-BIT INS]
     956 0000024a 1C40              ADDS      A1, A1, #1            ; [DPU_3_PIPE] |118|  ; [ORIG 16-BIT INS]
     957 0000024c 9001              STR       A1, [SP, #4]          ; [DPU_3_PIPE] |118|  ; [ORIG 16-BIT INS]
     958                            .dwpsn  file "../gyro_init.c",line 119,column 10,is_stmt,isa 1
     959                    ;----------------------------------------------------------------------
     960                    ; 119 | for (i = 0; i < 50000; i++);                                           
     961                    ;----------------------------------------------------------------------
     962 0000024e 2000              MOVS      A1, #0                ; [DPU_3_PIPE] |119|  ; [ORIG 16-BIT INS]
     963 00000250 9003              STR       A1, [SP, #12]         ; [DPU_3_PIPE] |119|  ; [ORIG 16-BIT INS]
     964                            .dwpsn  file "../gyro_init.c",line 119,column 17,is_stmt,isa 1
     965                    ;----------------------------------------------------------------------
     966                    ; 122 | /// calcola la media: divide  per 32                                   
     967                    ;----------------------------------------------------------------------
     968 00000252 9803              LDR       A1, [SP, #12]         ; [DPU_3_PIPE] |119|  ; [ORIG 16-BIT INS]
     969 00000254 3150F24C          MOV       A2, #50000            ; [DPU_3_PIPE] |119|  ; [KEEP 32-BIT INS]
     970 00000258 4281              CMP       A2, A1                ; [DPU_3_PIPE] |119|  ; [ORIG 16-BIT INS]
     971 0000025a D907              BLS       ||$C$L12||            ; [DPU_3_PIPE] |119|  ; [ORIG 16-BIT INS]
     972                            ; BRANCHCC OCCURS {||$C$L12||}   ; [] |119| 
     973                    ;* --------------------------------------------------------------------------*
     974                    ;*   BEGIN LOOP ||$C$L11||
     975                    ;*
     976                    ;*   Loop source line                : 119
     977                    ;*   Loop closing brace source line  : 119
     978                    ;*   Known Minimum Trip Count        : 1
     979                    ;*   Known Maximum Trip Count        : 4294967295
     980                    ;*   Known Max Trip Count Factor     : 1
     981                    ;* --------------------------------------------------------------------------*
     982 0000025c           ||$C$L11||:    
     983                            .dwpsn  file "../gyro_init.c",line 119,column 28,is_stmt,isa 1
     984 0000025c 9803              LDR       A1, [SP, #12]         ; [DPU_3_PIPE] |119|  ; [ORIG 16-BIT INS]
     985 0000025e 1C40              ADDS      A1, A1, #1            ; [DPU_3_PIPE] |119|  ; [ORIG 16-BIT INS]
     986 00000260 9003              STR       A1, [SP, #12]         ; [DPU_3_PIPE] |119|  ; [ORIG 16-BIT INS]
     987                            .dwpsn  file "../gyro_init.c",line 119,column 17,is_stmt,isa 1
     988 00000262 9803              LDR       A1, [SP, #12]         ; [DPU_3_PIPE] |119|  ; [ORIG 16-BIT INS]
     989 00000264 3150F24C          MOV       A2, #50000            ; [DPU_3_PIPE] |119|  ; [KEEP 32-BIT INS]
     990 00000268 4281              CMP       A2, A1                ; [DPU_3_PIPE] |119|  ; [ORIG 16-BIT INS]
TI ARM Assembler PC v5.1.6 Wed Feb 10 23:08:25 2016

Tools Copyright (c) 1996-2014 Texas Instruments Incorporated
gyro_init.asm                                                        PAGE   19

     991 0000026a D8F7              BHI       ||$C$L11||            ; [DPU_3_PIPE] |119|  ; [ORIG 16-BIT INS]
     992                            ; BRANCHCC OCCURS {||$C$L11||}   ; [] |119| 
     993                    ;* --------------------------------------------------------------------------*
     994 0000026c           ||$C$L12||:    
     995                            .dwpsn  file "../gyro_init.c",line 110,column 9,is_stmt,isa 1
     996 0000026c 9801              LDR       A1, [SP, #4]          ; [DPU_3_PIPE] |110|  ; [ORIG 16-BIT INS]
     997 0000026e 2820              CMP       A1, #32               ; [DPU_3_PIPE] |110|  ; [ORIG 16-BIT INS]
     998 00000270 D3D0              BCC       ||$C$L10||            ; [DPU_3_PIPE] |110|  ; [ORIG 16-BIT INS]
     999                            ; BRANCHCC OCCURS {||$C$L10||}   ; [] |110| 
    1000                    ;* --------------------------------------------------------------------------*
    1001 00000272           ||$C$L13||:    
    1002                            .dwpsn  file "../gyro_init.c",line 123,column 3,is_stmt,isa 1
    1003                    ;----------------------------------------------------------------------
    1004                    ; 123 | z /= 32;                                                               
    1005                    ; 124 | /// assegna il valore nella struct G                                   
    1006                    ;----------------------------------------------------------------------
    1007 00000272 0014F9BD          LDRSH     A1, [SP, #20]         ; [DPU_3_PIPE] |123|  ; [KEEP 32-BIT INS]
    1008 00000276 1101              ASRS      A2, A1, #4            ; [DPU_3_PIPE] |123|  ; [ORIG 16-BIT INS]
    1009 00000278 60D1EB00          ADD       A1, A1, A2, LSR #27   ; [DPU_3_PIPE] |123|  ; [KEEP 32-BIT INS]
    1010 0000027c 1140              ASRS      A1, A1, #5            ; [DPU_3_PIPE] |123|  ; [ORIG 16-BIT INS]
    1011 0000027e 0014F8AD          STRH      A1, [SP, #20]         ; [DPU_3_PIPE] |123|  ; [KEEP 32-BIT INS]
    1012                            .dwpsn  file "../gyro_init.c",line 125,column 3,is_stmt,isa 1
    1013                    ;----------------------------------------------------------------------
    1014                    ; 125 | G->z0 = z;                                                             
    1015                    ;----------------------------------------------------------------------
    1016 00000282 9900              LDR       A2, [SP, #0]          ; [DPU_3_PIPE] |125|  ; [ORIG 16-BIT INS]
    1017 00000284 0014F8BD          LDRH      A1, [SP, #20]         ; [DPU_3_PIPE] |125|  ; [KEEP 32-BIT INS]
    1018 00000288 80C8              STRH      A1, [A2, #6]          ; [DPU_3_PIPE] |125|  ; [ORIG 16-BIT INS]
    1019                            .dwpsn  file "../gyro_init.c",line 126,column 2,is_stmt,isa 1
    1020                    ;----------------------------------------------------------------------
    1021                    ; 126 | break;                                                                 
    1022                    ;----------------------------------------------------------------------
    1023 0000028a E007              B         ||$C$L15||            ; [DPU_3_PIPE] |126|  ; [ORIG 16-BIT INS]
    1024                            ; BRANCH OCCURS {||$C$L15||}     ; [] |126| 
    1025                    ;* --------------------------------------------------------------------------*
    1026                    ;* --------------------------------------------------------------------------*
    1027 0000028c           ||$C$L14||:    
    1028                            .dwpsn  file "../gyro_init.c",line 81,column 2,is_stmt,isa 1
    1029 0000028c 9800              LDR       A1, [SP, #0]          ; [DPU_3_PIPE] |81|  ; [ORIG 16-BIT INS]
    1030 0000028e 7A00              LDRB      A1, [A1, #8]          ; [DPU_3_PIPE] |81|  ; [ORIG 16-BIT INS]
    1031 00000290 1F00              SUBS      A1, A1, #4            ; [DPU_3_PIPE] |81|  ; [ORIG 16-BIT INS]
    1032 00000292 D0BC              BEQ       ||$C$L9||             ; [DPU_3_PIPE] |81|  ; [ORIG 16-BIT INS]
    1033                            ; BRANCHCC OCCURS {||$C$L9||}    ; [] |81| 
    1034                    ;* --------------------------------------------------------------------------*
    1035 00000294 1EC0              SUBS      A1, A1, #3            ; [DPU_3_PIPE] |81|  ; [ORIG 16-BIT INS]
    1036 00000296 AF4CF43F          BEQ       ||$C$L4||             ; [DPU_3_PIPE] |81|  ; [KEEP 32-BIT INS]
    1037                            ; BRANCHCC OCCURS {||$C$L4||}    ; [] |81| 
    1038                    ;* --------------------------------------------------------------------------*
    1039 0000029a E7FF              B         ||$C$L15||            ; [DPU_3_PIPE] |81|  ; [ORIG 16-BIT INS]
    1040                            ; BRANCH OCCURS {||$C$L15||}     ; [] |81| 
    1041                    ;* --------------------------------------------------------------------------*
    1042                    ;* --------------------------------------------------------------------------*
    1043 0000029c           ||$C$L15||:    
    1044 0000029c B009              ADD       SP, SP, #36           ; [DPU_3_PIPE]  ; [ORIG 16-BIT INS]
    1045                            .dwcfi  cfa_offset, 4
TI ARM Assembler PC v5.1.6 Wed Feb 10 23:08:25 2016

Tools Copyright (c) 1996-2014 Texas Instruments Incorporated
gyro_init.asm                                                        PAGE   20

    1046                    $C$DW$65        .dwtag  DW_TAG_TI_branch
    1047                            .dwattr $C$DW$65, DW_AT_low_pc(0x00)
    1048                            .dwattr $C$DW$65, DW_AT_TI_return
    1049 0000029e BD00              POP       {PC}                  ; [DPU_3_PIPE]  ; [ORIG 16-BIT INS]
    1050                            .dwcfi  cfa_offset, 0
    1051                            ; BRANCH OCCURS                  ; [] 
    1052                            .dwattr $C$DW$51, DW_AT_TI_end_file("../gyro_init.c")
    1053                            .dwattr $C$DW$51, DW_AT_TI_end_line(0x80)
    1054                            .dwattr $C$DW$51, DW_AT_TI_end_column(0x01)
    1055                            .dwendentry
    1056                            .dwendtag $C$DW$51
    1057                    
    1058                    ;******************************************************************************
    1059                    ;* STRINGS                                                                    *
    1060                    ;******************************************************************************
    1061 000002a0                   .sect   ".text"
    1062                            .align  4
    1063 000002a0 47        ||$C$SL1||:     .string "Giroscopio non presente",10,0
         000002a1 69       
         000002a2 72       
         000002a3 6F       
         000002a4 73       
         000002a5 63       
         000002a6 6F       
         000002a7 70       
         000002a8 69       
         000002a9 6F       
         000002aa 20       
         000002ab 6E       
         000002ac 6F       
         000002ad 6E       
         000002ae 20       
         000002af 70       
         000002b0 72       
         000002b1 65       
         000002b2 73       
         000002b3 65       
         000002b4 6E       
         000002b5 74       
         000002b6 65       
         000002b7 0A       
         000002b8 00       
    1064                    ;******************************************************************************
    1065                    ;* FLOATING-POINT CONSTANTS                                                   *
    1066                    ;******************************************************************************
    1067 000002b9                   .sect   ".text"
    1068                            .align  4
    1069 000002bc 00000000  ||$C$FL1||:     .word   000000000h      ; 0
    1070 000002c0                   .sect   ".text"
    1071                            .clink
    1072                            .thumbfunc setupMCU
    1073 000002c0                   .thumb
    1074                            .global setupMCU
    1075                    
    1076                    $C$DW$66        .dwtag  DW_TAG_subprogram, DW_AT_name("setupMCU")
TI ARM Assembler PC v5.1.6 Wed Feb 10 23:08:25 2016

Tools Copyright (c) 1996-2014 Texas Instruments Incorporated
gyro_init.asm                                                        PAGE   21

    1077                            .dwattr $C$DW$66, DW_AT_low_pc(setupMCU)
    1078                            .dwattr $C$DW$66, DW_AT_high_pc(0x00)
    1079                            .dwattr $C$DW$66, DW_AT_TI_symbol_name("setupMCU")
    1080                            .dwattr $C$DW$66, DW_AT_external
    1081                            .dwattr $C$DW$66, DW_AT_TI_begin_file("../gyro_init.c")
    1082                            .dwattr $C$DW$66, DW_AT_TI_begin_line(0x84)
    1083                            .dwattr $C$DW$66, DW_AT_TI_begin_column(0x06)
    1084                            .dwattr $C$DW$66, DW_AT_decl_file("../gyro_init.c")
    1085                            .dwattr $C$DW$66, DW_AT_decl_line(0x84)
    1086                            .dwattr $C$DW$66, DW_AT_decl_column(0x06)
    1087                            .dwattr $C$DW$66, DW_AT_TI_max_frame_size(0x08)
    1088                            .dwpsn  file "../gyro_init.c",line 132,column 20,is_stmt,address setupMCU,isa 1
    1089                    
    1090                            .dwfde $C$DW$CIE, setupMCU
    1091                    ;----------------------------------------------------------------------
    1092                    ; 132 | void setupMCU(void){                                                   
    1093                    ; 134 | volatile uint32_t valore;                                              
    1094                    ; 135 | // Set the system clock to run at 80Mhz off PLL with external crystal a
    1095                    ;     | s                                                                      
    1096                    ; 136 | // reference.                                                          
    1097                    ; 137 | //                                                                     
    1098                    ;----------------------------------------------------------------------
    1099                    
    1100                    ;*****************************************************************************
    1101                    ;* FUNCTION NAME: setupMCU                                                   *
    1102                    ;*                                                                           *
    1103                    ;*   Regs Modified     : A1,A2,A3,A4,V9,SP,LR,SR,D0,D0_hi,D1,D1_hi,D2,D2_hi, *
    1104                    ;*                           D3,D3_hi,D4,D4_hi,D5,D5_hi,D6,D6_hi,D7,D7_hi,   *
    1105                    ;*                           FPEXC,FPSCR                                     *
    1106                    ;*   Regs Used         : A1,A2,A3,A4,V9,SP,LR,SR,D0,D0_hi,D1,D1_hi,D2,D2_hi, *
    1107                    ;*                           D3,D3_hi,D4,D4_hi,D5,D5_hi,D6,D6_hi,D7,D7_hi,   *
    1108                    ;*                           FPEXC,FPSCR                                     *
    1109                    ;*   Local Frame Size  : 0 Args + 4 Auto + 4 Save = 8 byte                   *
    1110                    ;*****************************************************************************
    1111 000002c0           setupMCU:
    1112                    ;* --------------------------------------------------------------------------*
    1113                            .dwcfi  cfa_offset, 0
    1114 000002c0 B508              PUSH      {A4, LR}              ; [DPU_3_PIPE]  ; [ORIG 16-BIT INS]
    1115                            .dwcfi  cfa_offset, 8
    1116                            .dwcfi  save_reg_to_mem, 14, -4
    1117                            .dwcfi  save_reg_to_mem, 3, -8
    1118                    $C$DW$67        .dwtag  DW_TAG_variable, DW_AT_name("valore")
    1119                            .dwattr $C$DW$67, DW_AT_TI_symbol_name("valore")
    1120                            .dwattr $C$DW$67, DW_AT_type(*$C$DW$T$75)
    1121                            .dwattr $C$DW$67, DW_AT_location[DW_OP_breg13 0]
    1122                            .dwpsn  file "../gyro_init.c",line 138,column 2,is_stmt,isa 1
    1123                    ;----------------------------------------------------------------------
    1124                    ; 138 | ROM_SysCtlClockSet(SYSCTL_SYSDIV_2_5 | SYSCTL_USE_PLL | SYSCTL_OSC_MAIN
    1125                    ;     |  | SYSCTL_XTAL_16MHZ);                                                 
    1126                    ; 140 | /// abilita la porta F                                                 
    1127                    ;----------------------------------------------------------------------
    1128 000002c2 4880              LDR       A1, $C$CON2           ; [DPU_3_PIPE] |138|  ; [ORIG 16-BIT INS]
    1129 000002c4 6800              LDR       A1, [A1, #0]          ; [DPU_3_PIPE] |138|  ; [ORIG 16-BIT INS]
    1130 000002c6 6DC0              LDR       A1, [A1, #92]         ; [DPU_3_PIPE] |138|  ; [ORIG 16-BIT INS]
    1131 000002c8 4601              MOV       A2, A1                ; [DPU_3_PIPE] |138|  ; [ORIG 16-BIT INS]
TI ARM Assembler PC v5.1.6 Wed Feb 10 23:08:25 2016

Tools Copyright (c) 1996-2014 Texas Instruments Incorporated
gyro_init.asm                                                        PAGE   22

    1132 000002ca 487F              LDR       A1, $C$CON3           ; [DPU_3_PIPE] |138|  ; [ORIG 16-BIT INS]
    1133                    $C$DW$68        .dwtag  DW_TAG_TI_branch
    1134                            .dwattr $C$DW$68, DW_AT_low_pc(0x00)
    1135                            .dwattr $C$DW$68, DW_AT_TI_call
    1136                            .dwattr $C$DW$68, DW_AT_TI_indirect
    1137 000002cc 4788              BLX       A2                    ; [DPU_3_PIPE] |138|  ; [ORIG 16-BIT INS]
    1138                            ; CALL OCCURS {}                 ; [] |138| 
    1139                            .dwpsn  file "../gyro_init.c",line 141,column 2,is_stmt,isa 1
    1140                    ;----------------------------------------------------------------------
    1141                    ; 141 | ROM_SysCtlPeripheralEnable(SYSCTL_PERIPH_GPIOF);                       
    1142                    ;----------------------------------------------------------------------
    1143 000002ce 487D              LDR       A1, $C$CON2           ; [DPU_3_PIPE] |141|  ; [ORIG 16-BIT INS]
    1144 000002d0 6800              LDR       A1, [A1, #0]          ; [DPU_3_PIPE] |141|  ; [ORIG 16-BIT INS]
    1145 000002d2 6980              LDR       A1, [A1, #24]         ; [DPU_3_PIPE] |141|  ; [ORIG 16-BIT INS]
    1146 000002d4 4601              MOV       A2, A1                ; [DPU_3_PIPE] |141|  ; [ORIG 16-BIT INS]
    1147 000002d6 487D              LDR       A1, $C$CON4           ; [DPU_3_PIPE] |141|  ; [ORIG 16-BIT INS]
    1148                    $C$DW$69        .dwtag  DW_TAG_TI_branch
    1149                            .dwattr $C$DW$69, DW_AT_low_pc(0x00)
    1150                            .dwattr $C$DW$69, DW_AT_TI_call
    1151                            .dwattr $C$DW$69, DW_AT_TI_indirect
    1152 000002d8 4788              BLX       A2                    ; [DPU_3_PIPE] |141|  ; [ORIG 16-BIT INS]
    1153                            ; CALL OCCURS {}                 ; [] |141| 
    1154                            .dwpsn  file "../gyro_init.c",line 142,column 2,is_stmt,isa 1
    1155                    ;----------------------------------------------------------------------
    1156                    ; 142 | ROM_GPIOPinTypeGPIOOutput(GPIO_PORTF_BASE, BLUE_LED | GREEN_LED | RED_L
    1157                    ;     | ED);                                                                   
    1158                    ; 143 | /// spegne i led                                                       
    1159                    ;----------------------------------------------------------------------
    1160 000002da 487D              LDR       A1, $C$CON5           ; [DPU_3_PIPE] |142|  ; [ORIG 16-BIT INS]
    1161 000002dc 6800              LDR       A1, [A1, #0]          ; [DPU_3_PIPE] |142|  ; [ORIG 16-BIT INS]
    1162 000002de 6BC0              LDR       A1, [A1, #60]         ; [DPU_3_PIPE] |142|  ; [ORIG 16-BIT INS]
    1163 000002e0 4602              MOV       A3, A1                ; [DPU_3_PIPE] |142|  ; [ORIG 16-BIT INS]
    1164 000002e2 481C              LDR       A1, $C$CON1           ; [DPU_3_PIPE] |142|  ; [ORIG 16-BIT INS]
    1165 000002e4 210E              MOVS      A2, #14               ; [DPU_3_PIPE] |142|  ; [ORIG 16-BIT INS]
    1166                    $C$DW$70        .dwtag  DW_TAG_TI_branch
    1167                            .dwattr $C$DW$70, DW_AT_low_pc(0x00)
    1168                            .dwattr $C$DW$70, DW_AT_TI_call
    1169                            .dwattr $C$DW$70, DW_AT_TI_indirect
    1170 000002e6 4790              BLX       A3                    ; [DPU_3_PIPE] |142|  ; [ORIG 16-BIT INS]
    1171                            ; CALL OCCURS {}                 ; [] |142| 
    1172                            .dwpsn  file "../gyro_init.c",line 144,column 2,is_stmt,isa 1
    1173                    ;----------------------------------------------------------------------
    1174                    ; 144 | ROM_GPIOPinWrite(GPIO_PORTF_BASE, BLUE_LED | GREEN_LED | RED_LED, 0);  
    1175                    ; 145 | //                                                                     
    1176                    ; 146 | // Set the pin direction and mode.                                     
    1177                    ; 147 | //                                                                     
    1178                    ; 148 | /// PF4 in ingresso                                                    
    1179                    ;----------------------------------------------------------------------
    1180 000002e8 4879              LDR       A1, $C$CON5           ; [DPU_3_PIPE] |144|  ; [ORIG 16-BIT INS]
    1181 000002ea 6800              LDR       A1, [A1, #0]          ; [DPU_3_PIPE] |144|  ; [ORIG 16-BIT INS]
    1182 000002ec 6800              LDR       A1, [A1, #0]          ; [DPU_3_PIPE] |144|  ; [ORIG 16-BIT INS]
    1183 000002ee 4603              MOV       A4, A1                ; [DPU_3_PIPE] |144|  ; [ORIG 16-BIT INS]
    1184 000002f0 4818              LDR       A1, $C$CON1           ; [DPU_3_PIPE] |144|  ; [ORIG 16-BIT INS]
    1185 000002f2 210E              MOVS      A2, #14               ; [DPU_3_PIPE] |144|  ; [ORIG 16-BIT INS]
    1186 000002f4 2200              MOVS      A3, #0                ; [DPU_3_PIPE] |144|  ; [ORIG 16-BIT INS]
TI ARM Assembler PC v5.1.6 Wed Feb 10 23:08:25 2016

Tools Copyright (c) 1996-2014 Texas Instruments Incorporated
gyro_init.asm                                                        PAGE   23

    1187                    $C$DW$71        .dwtag  DW_TAG_TI_branch
    1188                            .dwattr $C$DW$71, DW_AT_low_pc(0x00)
    1189                            .dwattr $C$DW$71, DW_AT_TI_call
    1190                            .dwattr $C$DW$71, DW_AT_TI_indirect
    1191 000002f6 4798              BLX       A4                    ; [DPU_3_PIPE] |144|  ; [ORIG 16-BIT INS]
    1192                            ; CALL OCCURS {}                 ; [] |144| 
    1193                            .dwpsn  file "../gyro_init.c",line 149,column 2,is_stmt,isa 1
    1194                    ;----------------------------------------------------------------------
    1195                    ; 149 | HWREG(GPIO_PORTF_BASE + GPIO_O_DIR)     &= ~GPIO_PIN_4;                
    1196                    ; 150 | /// no alternate function                                              
    1197                    ;----------------------------------------------------------------------
    1198 000002f8 4976              LDR       A2, $C$CON6           ; [DPU_3_PIPE] |149|  ; [ORIG 16-BIT INS]
    1199 000002fa 6808              LDR       A1, [A2, #0]          ; [DPU_3_PIPE] |149|  ; [ORIG 16-BIT INS]
    1200 000002fc 0010F020          BIC       A1, A1, #16           ; [DPU_3_PIPE] |149|  ; [KEEP 32-BIT INS]
    1201 00000300 6008              STR       A1, [A2, #0]          ; [DPU_3_PIPE] |149|  ; [ORIG 16-BIT INS]
    1202                            .dwpsn  file "../gyro_init.c",line 151,column 2,is_stmt,isa 1
    1203                    ;----------------------------------------------------------------------
    1204                    ; 151 | HWREG(GPIO_PORTF_BASE + GPIO_O_AFSEL)   &= ~GPIO_PIN_4;                
    1205                    ; 152 | /// 2 ma di corrente                                                   
    1206                    ;----------------------------------------------------------------------
    1207 00000302 4975              LDR       A2, $C$CON7           ; [DPU_3_PIPE] |151|  ; [ORIG 16-BIT INS]
    1208 00000304 6808              LDR       A1, [A2, #0]          ; [DPU_3_PIPE] |151|  ; [ORIG 16-BIT INS]
    1209 00000306 0010F020          BIC       A1, A1, #16           ; [DPU_3_PIPE] |151|  ; [KEEP 32-BIT INS]
    1210 0000030a 6008              STR       A1, [A2, #0]          ; [DPU_3_PIPE] |151|  ; [ORIG 16-BIT INS]
    1211                            .dwpsn  file "../gyro_init.c",line 153,column 2,is_stmt,isa 1
    1212                    ;----------------------------------------------------------------------
    1213                    ; 153 | HWREG(GPIO_PORTF_BASE + GPIO_O_DR2R)    |= GPIO_PIN_4;                 
    1214                    ; 154 | /// controllo slew rate off                                            
    1215                    ;----------------------------------------------------------------------
    1216 0000030c 4973              LDR       A2, $C$CON8           ; [DPU_3_PIPE] |153|  ; [ORIG 16-BIT INS]
    1217 0000030e 6808              LDR       A1, [A2, #0]          ; [DPU_3_PIPE] |153|  ; [ORIG 16-BIT INS]
    1218 00000310 0010F040          ORR       A1, A1, #16           ; [DPU_3_PIPE] |153|  ; [KEEP 32-BIT INS]
    1219 00000314 6008              STR       A1, [A2, #0]          ; [DPU_3_PIPE] |153|  ; [ORIG 16-BIT INS]
    1220                            .dwpsn  file "../gyro_init.c",line 155,column 2,is_stmt,isa 1
    1221                    ;----------------------------------------------------------------------
    1222                    ; 155 | HWREG(GPIO_PORTF_BASE + GPIO_O_SLR)             &= ~GPIO_PIN_4;        
    1223                    ; 156 | /// pull up                                                            
    1224                    ;----------------------------------------------------------------------
    1225 00000316 4972              LDR       A2, $C$CON9           ; [DPU_3_PIPE] |155|  ; [ORIG 16-BIT INS]
    1226 00000318 6808              LDR       A1, [A2, #0]          ; [DPU_3_PIPE] |155|  ; [ORIG 16-BIT INS]
    1227 0000031a 0010F020          BIC       A1, A1, #16           ; [DPU_3_PIPE] |155|  ; [KEEP 32-BIT INS]
    1228 0000031e 6008              STR       A1, [A2, #0]          ; [DPU_3_PIPE] |155|  ; [ORIG 16-BIT INS]
    1229                            .dwpsn  file "../gyro_init.c",line 157,column 2,is_stmt,isa 1
    1230                    ;----------------------------------------------------------------------
    1231                    ; 157 | HWREG(GPIO_PORTF_BASE + GPIO_O_PUR)             |= GPIO_PIN_4;         
    1232                    ; 158 | /// abilitazione della funzione digitale                               
    1233                    ;----------------------------------------------------------------------
    1234 00000320 4970              LDR       A2, $C$CON10          ; [DPU_3_PIPE] |157|  ; [ORIG 16-BIT INS]
    1235 00000322 6808              LDR       A1, [A2, #0]          ; [DPU_3_PIPE] |157|  ; [ORIG 16-BIT INS]
    1236 00000324 0010F040          ORR       A1, A1, #16           ; [DPU_3_PIPE] |157|  ; [KEEP 32-BIT INS]
    1237 00000328 6008              STR       A1, [A2, #0]          ; [DPU_3_PIPE] |157|  ; [ORIG 16-BIT INS]
    1238                            .dwpsn  file "../gyro_init.c",line 159,column 2,is_stmt,isa 1
    1239                    ;----------------------------------------------------------------------
    1240                    ; 159 | HWREG(GPIO_PORTF_BASE + GPIO_O_DEN)             |= GPIO_PIN_4;         
    1241                    ; 160 | /// legge il pin (ricordare lo shift di 2 posizione verso sinistra dell
TI ARM Assembler PC v5.1.6 Wed Feb 10 23:08:25 2016

Tools Copyright (c) 1996-2014 Texas Instruments Incorporated
gyro_init.asm                                                        PAGE   24

    1242                    ;     | a maschera di bit                                                      
    1243                    ; 161 | ///  p. 654 U.G.)                                                      
    1244                    ; 162 | /// attesa per l'attuazione delle impostazioni                         
    1245                    ;----------------------------------------------------------------------
    1246 0000032a 496F              LDR       A2, $C$CON11          ; [DPU_3_PIPE] |159|  ; [ORIG 16-BIT INS]
    1247 0000032c 6808              LDR       A1, [A2, #0]          ; [DPU_3_PIPE] |159|  ; [ORIG 16-BIT INS]
    1248 0000032e 0010F040          ORR       A1, A1, #16           ; [DPU_3_PIPE] |159|  ; [KEEP 32-BIT INS]
    1249 00000332 6008              STR       A1, [A2, #0]          ; [DPU_3_PIPE] |159|  ; [ORIG 16-BIT INS]
    1250                            .dwpsn  file "../gyro_init.c",line 163,column 2,is_stmt,isa 1
    1251                    ;----------------------------------------------------------------------
    1252                    ; 163 | valore = 10;                                                           
    1253                    ;----------------------------------------------------------------------
    1254 00000334 200A              MOVS      A1, #10               ; [DPU_3_PIPE] |163|  ; [ORIG 16-BIT INS]
    1255 00000336 9000              STR       A1, [SP, #0]          ; [DPU_3_PIPE] |163|  ; [ORIG 16-BIT INS]
    1256                            .dwpsn  file "../gyro_init.c",line 164,column 2,is_stmt,isa 1
    1257                    ;----------------------------------------------------------------------
    1258                    ; 164 | while(--valore);                                                       
    1259                    ;----------------------------------------------------------------------
    1260 00000338 9800              LDR       A1, [SP, #0]          ; [DPU_3_PIPE] |164|  ; [ORIG 16-BIT INS]
    1261 0000033a 1E40              SUBS      A1, A1, #1            ; [DPU_3_PIPE] |164|  ; [ORIG 16-BIT INS]
    1262 0000033c 9000              STR       A1, [SP, #0]          ; [DPU_3_PIPE] |164|  ; [ORIG 16-BIT INS]
    1263 0000033e D003              BEQ       ||$C$L17||            ; [DPU_3_PIPE] |164|  ; [ORIG 16-BIT INS]
    1264                            ; BRANCHCC OCCURS {||$C$L17||}   ; [] |164| 
    1265                    ;* --------------------------------------------------------------------------*
    1266                    ;*   BEGIN LOOP ||$C$L16||
    1267                    ;*
    1268                    ;*   Loop source line                : 164
    1269                    ;*   Loop closing brace source line  : 164
    1270                    ;*   Known Minimum Trip Count        : 1
    1271                    ;*   Known Maximum Trip Count        : 4294967295
    1272                    ;*   Known Max Trip Count Factor     : 1
    1273                    ;* --------------------------------------------------------------------------*
    1274 00000340           ||$C$L16||:    
    1275 00000340 9800              LDR       A1, [SP, #0]          ; [DPU_3_PIPE] |164|  ; [ORIG 16-BIT INS]
    1276 00000342 1E40              SUBS      A1, A1, #1            ; [DPU_3_PIPE] |164|  ; [ORIG 16-BIT INS]
    1277 00000344 9000              STR       A1, [SP, #0]          ; [DPU_3_PIPE] |164|  ; [ORIG 16-BIT INS]
    1278 00000346 D1FB              BNE       ||$C$L16||            ; [DPU_3_PIPE] |164|  ; [ORIG 16-BIT INS]
    1279                            ; BRANCHCC OCCURS {||$C$L16||}   ; [] |164| 
    1280                    ;* --------------------------------------------------------------------------*
    1281 00000348           ||$C$L17||:    
    1282                            .dwpsn  file "../gyro_init.c",line 165,column 8,is_stmt,isa 1
    1283                    ;----------------------------------------------------------------------
    1284                    ; 165 | while(HWREG(GPIO_PORTF_BASE + (GPIO_O_DATA + (GPIO_PIN_4 << 2))) == GPI
    1285                    ;     | O_PIN_4);                                                              
    1286                    ; 168 | //setup PB0 per scopi di debug                                         
    1287                    ;----------------------------------------------------------------------
    1288 00000348 4868              LDR       A1, $C$CON12          ; [DPU_3_PIPE] |165|  ; [ORIG 16-BIT INS]
    1289 0000034a 6800              LDR       A1, [A1, #0]          ; [DPU_3_PIPE] |165|  ; [ORIG 16-BIT INS]
    1290 0000034c 2810              CMP       A1, #16               ; [DPU_3_PIPE] |165|  ; [ORIG 16-BIT INS]
    1291 0000034e D107              BNE       ||$C$L19||            ; [DPU_3_PIPE] |165|  ; [ORIG 16-BIT INS]
    1292                            ; BRANCHCC OCCURS {||$C$L19||}   ; [] |165| 
    1293                    ;* --------------------------------------------------------------------------*
    1294 00000350 E002              B         ||$C$L18||            ; []  ; [ORIG 16-BIT INS]
    1295                            ; BRANCH OCCURS {||$C$L18||}     ; [] 
    1296                    ;******************************************************************************
TI ARM Assembler PC v5.1.6 Wed Feb 10 23:08:25 2016

Tools Copyright (c) 1996-2014 Texas Instruments Incorporated
gyro_init.asm                                                        PAGE   25

    1297                    ;* CONSTANT TABLE                                                             *
    1298                    ;******************************************************************************
    1299 00000352                   .sect   ".text"
    1300                            .align  4
    1301 00000352 500046C0  ||$C$CON1||:    .bits   1073893376,32
         00000356 00004002 
    1302                    ;* --------------------------------------------------------------------------*
    1303                    ;*   BEGIN LOOP ||$C$L18||
    1304                    ;*
    1305                    ;*   Loop source line                : 165
    1306                    ;*   Loop closing brace source line  : 165
    1307                    ;*   Known Minimum Trip Count        : 1
    1308                    ;*   Known Maximum Trip Count        : 4294967295
    1309                    ;*   Known Max Trip Count Factor     : 1
    1310                    ;* --------------------------------------------------------------------------*
    1311 00000358           ||$C$L18||:    
    1312 00000358 4864              LDR       A1, $C$CON12          ; [DPU_3_PIPE] |165|  ; [ORIG 16-BIT INS]
    1313 0000035a 6800              LDR       A1, [A1, #0]          ; [DPU_3_PIPE] |165|  ; [ORIG 16-BIT INS]
    1314 0000035c 2810              CMP       A1, #16               ; [DPU_3_PIPE] |165|  ; [ORIG 16-BIT INS]
    1315 0000035e D0FB              BEQ       ||$C$L18||            ; [DPU_3_PIPE] |165|  ; [ORIG 16-BIT INS]
    1316                            ; BRANCHCC OCCURS {||$C$L18||}   ; [] |165| 
    1317                    ;* --------------------------------------------------------------------------*
    1318 00000360           ||$C$L19||:    
    1319                            .dwpsn  file "../gyro_init.c",line 169,column 2,is_stmt,isa 1
    1320                    ;----------------------------------------------------------------------
    1321                    ; 169 | ROM_SysCtlPeripheralEnable(SYSCTL_PERIPH_GPIOB);                       
    1322                    ; 170 | /// PB0 in uscita                                                      
    1323                    ;----------------------------------------------------------------------
    1324 00000360 4858              LDR       A1, $C$CON2           ; [DPU_3_PIPE] |169|  ; [ORIG 16-BIT INS]
    1325 00000362 6800              LDR       A1, [A1, #0]          ; [DPU_3_PIPE] |169|  ; [ORIG 16-BIT INS]
    1326 00000364 6980              LDR       A1, [A1, #24]         ; [DPU_3_PIPE] |169|  ; [ORIG 16-BIT INS]
    1327 00000366 4601              MOV       A2, A1                ; [DPU_3_PIPE] |169|  ; [ORIG 16-BIT INS]
    1328 00000368 4861              LDR       A1, $C$CON13          ; [DPU_3_PIPE] |169|  ; [ORIG 16-BIT INS]
    1329                    $C$DW$72        .dwtag  DW_TAG_TI_branch
    1330                            .dwattr $C$DW$72, DW_AT_low_pc(0x00)
    1331                            .dwattr $C$DW$72, DW_AT_TI_call
    1332                            .dwattr $C$DW$72, DW_AT_TI_indirect
    1333 0000036a 4788              BLX       A2                    ; [DPU_3_PIPE] |169|  ; [ORIG 16-BIT INS]
    1334                            ; CALL OCCURS {}                 ; [] |169| 
    1335                            .dwpsn  file "../gyro_init.c",line 171,column 2,is_stmt,isa 1
    1336                    ;----------------------------------------------------------------------
    1337                    ; 171 | HWREG(GPIO_PORTB_BASE + GPIO_O_DIR)     |= GPIO_PIN_0;                 
    1338                    ; 172 | /// no alternate function                                              
    1339                    ;----------------------------------------------------------------------
    1340 0000036c 4961              LDR       A2, $C$CON14          ; [DPU_3_PIPE] |171|  ; [ORIG 16-BIT INS]
    1341 0000036e 6808              LDR       A1, [A2, #0]          ; [DPU_3_PIPE] |171|  ; [ORIG 16-BIT INS]
    1342 00000370 0001F040          ORR       A1, A1, #1            ; [DPU_3_PIPE] |171|  ; [KEEP 32-BIT INS]
    1343 00000374 6008              STR       A1, [A2, #0]          ; [DPU_3_PIPE] |171|  ; [ORIG 16-BIT INS]
    1344                            .dwpsn  file "../gyro_init.c",line 173,column 2,is_stmt,isa 1
    1345                    ;----------------------------------------------------------------------
    1346                    ; 173 | HWREG(GPIO_PORTB_BASE + GPIO_O_AFSEL)   &= ~GPIO_PIN_0;                
    1347                    ; 174 | /// 2 ma di corrente                                                   
    1348                    ;----------------------------------------------------------------------
    1349 00000376 4960              LDR       A2, $C$CON15          ; [DPU_3_PIPE] |173|  ; [ORIG 16-BIT INS]
    1350 00000378 6808              LDR       A1, [A2, #0]          ; [DPU_3_PIPE] |173|  ; [ORIG 16-BIT INS]
TI ARM Assembler PC v5.1.6 Wed Feb 10 23:08:25 2016

Tools Copyright (c) 1996-2014 Texas Instruments Incorporated
gyro_init.asm                                                        PAGE   26

    1351 0000037a 0001F020          BIC       A1, A1, #1            ; [DPU_3_PIPE] |173|  ; [KEEP 32-BIT INS]
    1352 0000037e 6008              STR       A1, [A2, #0]          ; [DPU_3_PIPE] |173|  ; [ORIG 16-BIT INS]
    1353                            .dwpsn  file "../gyro_init.c",line 175,column 2,is_stmt,isa 1
    1354                    ;----------------------------------------------------------------------
    1355                    ; 175 | HWREG(GPIO_PORTB_BASE + GPIO_O_DR2R)    |= GPIO_PIN_0;                 
    1356                    ; 176 | /// controllo slew rate off                                            
    1357                    ;----------------------------------------------------------------------
    1358 00000380 495E              LDR       A2, $C$CON16          ; [DPU_3_PIPE] |175|  ; [ORIG 16-BIT INS]
    1359 00000382 6808              LDR       A1, [A2, #0]          ; [DPU_3_PIPE] |175|  ; [ORIG 16-BIT INS]
    1360 00000384 0001F040          ORR       A1, A1, #1            ; [DPU_3_PIPE] |175|  ; [KEEP 32-BIT INS]
    1361 00000388 6008              STR       A1, [A2, #0]          ; [DPU_3_PIPE] |175|  ; [ORIG 16-BIT INS]
    1362                            .dwpsn  file "../gyro_init.c",line 177,column 2,is_stmt,isa 1
    1363                    ;----------------------------------------------------------------------
    1364                    ; 177 | HWREG(GPIO_PORTB_BASE + GPIO_O_SLR)             &= ~GPIO_PIN_0;        
    1365                    ; 178 | /// pull up                                                            
    1366                    ; 179 | //HWREG(GPIO_PORTF_BASE + GPIO_O_PUR)           |= GPIO_PIN_4;         
    1367                    ; 180 | /// abilitazione della funzione digitale                               
    1368                    ;----------------------------------------------------------------------
    1369 0000038a 495D              LDR       A2, $C$CON17          ; [DPU_3_PIPE] |177|  ; [ORIG 16-BIT INS]
    1370 0000038c 6808              LDR       A1, [A2, #0]          ; [DPU_3_PIPE] |177|  ; [ORIG 16-BIT INS]
    1371 0000038e 0001F020          BIC       A1, A1, #1            ; [DPU_3_PIPE] |177|  ; [KEEP 32-BIT INS]
    1372 00000392 6008              STR       A1, [A2, #0]          ; [DPU_3_PIPE] |177|  ; [ORIG 16-BIT INS]
    1373                            .dwpsn  file "../gyro_init.c",line 181,column 2,is_stmt,isa 1
    1374                    ;----------------------------------------------------------------------
    1375                    ; 181 | HWREG(GPIO_PORTB_BASE + GPIO_O_DEN)             |= GPIO_PIN_0;         
    1376                    ; 182 | /// imposta il pin (ricordare lo shift di 2 posizione verso sinistra de
    1377                    ;     | lla maschera di bit                                                    
    1378                    ;----------------------------------------------------------------------
    1379 00000394 495B              LDR       A2, $C$CON18          ; [DPU_3_PIPE] |181|  ; [ORIG 16-BIT INS]
    1380 00000396 6808              LDR       A1, [A2, #0]          ; [DPU_3_PIPE] |181|  ; [ORIG 16-BIT INS]
    1381 00000398 0001F040          ORR       A1, A1, #1            ; [DPU_3_PIPE] |181|  ; [KEEP 32-BIT INS]
    1382 0000039c 6008              STR       A1, [A2, #0]          ; [DPU_3_PIPE] |181|  ; [ORIG 16-BIT INS]
    1383                            .dwpsn  file "../gyro_init.c",line 183,column 2,is_stmt,isa 1
    1384                    ;----------------------------------------------------------------------
    1385                    ; 183 | HWREG(GPIO_PORTB_BASE + (GPIO_O_DATA + (GPIO_PIN_0 << 2))) |=  GPIO_PIN
    1386                    ;     | _0;                                                                    
    1387                    ;----------------------------------------------------------------------
    1388 0000039e 495A              LDR       A2, $C$CON19          ; [DPU_3_PIPE] |183|  ; [ORIG 16-BIT INS]
    1389 000003a0 6808              LDR       A1, [A2, #0]          ; [DPU_3_PIPE] |183|  ; [ORIG 16-BIT INS]
    1390 000003a2 0001F040          ORR       A1, A1, #1            ; [DPU_3_PIPE] |183|  ; [KEEP 32-BIT INS]
    1391 000003a6 6008              STR       A1, [A2, #0]          ; [DPU_3_PIPE] |183|  ; [ORIG 16-BIT INS]
    1392                            .dwpsn  file "../gyro_init.c",line 184,column 2,is_stmt,isa 1
    1393                    ;----------------------------------------------------------------------
    1394                    ; 184 | HWREG(GPIO_PORTB_BASE + (GPIO_O_DATA + (GPIO_PIN_0 << 2))) &=  ~GPIO_PI
    1395                    ;     | N_0;                                                                   
    1396                    ;----------------------------------------------------------------------
    1397 000003a8 4957              LDR       A2, $C$CON19          ; [DPU_3_PIPE] |184|  ; [ORIG 16-BIT INS]
    1398 000003aa 6808              LDR       A1, [A2, #0]          ; [DPU_3_PIPE] |184|  ; [ORIG 16-BIT INS]
    1399 000003ac 0001F020          BIC       A1, A1, #1            ; [DPU_3_PIPE] |184|  ; [KEEP 32-BIT INS]
    1400 000003b0 6008              STR       A1, [A2, #0]          ; [DPU_3_PIPE] |184|  ; [ORIG 16-BIT INS]
    1401                            .dwpsn  file "../gyro_init.c",line 185,column 2,is_stmt,isa 1
    1402                    ;----------------------------------------------------------------------
    1403                    ; 185 | HWREG(GPIO_PORTF_BASE + (GPIO_O_DATA + (GPIO_PIN_3 << 2))) |=  GPIO_PIN
    1404                    ;     | _3;                                                                    
    1405                    ;----------------------------------------------------------------------
TI ARM Assembler PC v5.1.6 Wed Feb 10 23:08:25 2016

Tools Copyright (c) 1996-2014 Texas Instruments Incorporated
gyro_init.asm                                                        PAGE   27

    1406 000003b2 4956              LDR       A2, $C$CON20          ; [DPU_3_PIPE] |185|  ; [ORIG 16-BIT INS]
    1407 000003b4 6808              LDR       A1, [A2, #0]          ; [DPU_3_PIPE] |185|  ; [ORIG 16-BIT INS]
    1408 000003b6 0008F040          ORR       A1, A1, #8            ; [DPU_3_PIPE] |185|  ; [KEEP 32-BIT INS]
    1409 000003ba 6008              STR       A1, [A2, #0]          ; [DPU_3_PIPE] |185|  ; [ORIG 16-BIT INS]
    1410                            .dwpsn  file "../gyro_init.c",line 187,column 1,is_stmt,isa 1
    1411                    $C$DW$73        .dwtag  DW_TAG_TI_branch
    1412                            .dwattr $C$DW$73, DW_AT_low_pc(0x00)
    1413                            .dwattr $C$DW$73, DW_AT_TI_return
    1414 000003bc BD08              POP       {A4, PC}              ; [DPU_3_PIPE]  ; [ORIG 16-BIT INS]
    1415                            .dwcfi  cfa_offset, 0
    1416                            ; BRANCH OCCURS                  ; [] 
    1417                            .dwattr $C$DW$66, DW_AT_TI_end_file("../gyro_init.c")
    1418                            .dwattr $C$DW$66, DW_AT_TI_end_line(0xbb)
    1419                            .dwattr $C$DW$66, DW_AT_TI_end_column(0x01)
    1420                            .dwendentry
    1421                            .dwendtag $C$DW$66
    1422                    
    1423                    ;******************************************************************************
    1424                    ;* FLOATING-POINT CONSTANTS                                                   *
    1425                    ;******************************************************************************
    1426 000003be                   .sect   ".text"
    1427                            .align  4
    1428 000003c0 3F959B3D  ||$C$FL2||:     .word   03f959b3dh      ; 1.16879999637603759766
    1429 000003c4                   .sect   ".text"
    1430                            .clink
    1431                            .thumbfunc attesa
    1432 000003c4                   .thumb
    1433                            .global attesa
    1434                    
    1435                    $C$DW$74        .dwtag  DW_TAG_subprogram, DW_AT_name("attesa")
    1436                            .dwattr $C$DW$74, DW_AT_low_pc(attesa)
    1437                            .dwattr $C$DW$74, DW_AT_high_pc(0x00)
    1438                            .dwattr $C$DW$74, DW_AT_TI_symbol_name("attesa")
    1439                            .dwattr $C$DW$74, DW_AT_external
    1440                            .dwattr $C$DW$74, DW_AT_TI_begin_file("../gyro_init.c")
    1441                            .dwattr $C$DW$74, DW_AT_TI_begin_line(0xc0)
    1442                            .dwattr $C$DW$74, DW_AT_TI_begin_column(0x06)
    1443                            .dwattr $C$DW$74, DW_AT_decl_file("../gyro_init.c")
    1444                            .dwattr $C$DW$74, DW_AT_decl_line(0xc0)
    1445                            .dwattr $C$DW$74, DW_AT_decl_column(0x06)
    1446                            .dwattr $C$DW$74, DW_AT_TI_max_frame_size(0x08)
    1447                            .dwpsn  file "../gyro_init.c",line 192,column 23,is_stmt,address attesa,isa 1
    1448                    
    1449                            .dwfde $C$DW$CIE, attesa
    1450                    $C$DW$75        .dwtag  DW_TAG_formal_parameter, DW_AT_name("delay")
    1451                            .dwattr $C$DW$75, DW_AT_TI_symbol_name("delay")
    1452                            .dwattr $C$DW$75, DW_AT_type(*$C$DW$T$10)
    1453                            .dwattr $C$DW$75, DW_AT_location[DW_OP_reg0]
    1454                    
    1455                    ;*****************************************************************************
    1456                    ;* FUNCTION NAME: attesa                                                     *
    1457                    ;*                                                                           *
    1458                    ;*   Regs Modified     : A1,A2,SP,SR                                         *
    1459                    ;*   Regs Used         : A1,A2,SP,LR,SR                                      *
    1460                    ;*   Local Frame Size  : 0 Args + 4 Auto + 0 Save = 4 byte                   *
TI ARM Assembler PC v5.1.6 Wed Feb 10 23:08:25 2016

Tools Copyright (c) 1996-2014 Texas Instruments Incorporated
gyro_init.asm                                                        PAGE   28

    1461                    ;*****************************************************************************
    1462 000003c4           attesa:
    1463                    ;* --------------------------------------------------------------------------*
    1464                            .dwcfi  cfa_offset, 0
    1465 000003c4 0D08F1AD          SUB       SP, SP, #8            ; [DPU_3_PIPE]  ; [KEEP 32-BIT INS]
    1466                            .dwcfi  cfa_offset, 8
    1467                    $C$DW$76        .dwtag  DW_TAG_variable, DW_AT_name("delay")
    1468                            .dwattr $C$DW$76, DW_AT_TI_symbol_name("delay")
    1469                            .dwattr $C$DW$76, DW_AT_type(*$C$DW$T$10)
    1470                            .dwattr $C$DW$76, DW_AT_location[DW_OP_breg13 0]
    1471                    ;----------------------------------------------------------------------
    1472                    ; 192 | void attesa(int delay){                                                
    1473                    ;----------------------------------------------------------------------
    1474 000003c8 9000              STR       A1, [SP, #0]          ; [DPU_3_PIPE] |192|  ; [ORIG 16-BIT INS]
    1475                            .dwpsn  file "../gyro_init.c",line 194,column 9,is_stmt,isa 1
    1476                    ;----------------------------------------------------------------------
    1477                    ; 194 | while (delay > 0)                                                      
    1478                    ;----------------------------------------------------------------------
    1479 000003ca 9800              LDR       A1, [SP, #0]          ; [DPU_3_PIPE] |194|  ; [ORIG 16-BIT INS]
    1480 000003cc 2800              CMP       A1, #0                ; [DPU_3_PIPE] |194|  ; [ORIG 16-BIT INS]
    1481 000003ce DD0C              BLE       ||$C$L22||            ; [DPU_3_PIPE] |194|  ; [ORIG 16-BIT INS]
    1482                            ; BRANCHCC OCCURS {||$C$L22||}   ; [] |194| 
    1483                    ;* --------------------------------------------------------------------------*
    1484                    ;*   BEGIN LOOP ||$C$L20||
    1485                    ;*
    1486                    ;*   Loop source line                : 194
    1487                    ;*   Loop closing brace source line  : 198
    1488                    ;*   Known Minimum Trip Count        : 1
    1489                    ;*   Known Maximum Trip Count        : 4294967295
    1490                    ;*   Known Max Trip Count Factor     : 1
    1491                    ;* --------------------------------------------------------------------------*
    1492 000003d0           ||$C$L20||:    
    1493                            .dwpsn  file "../gyro_init.c",line 195,column 3,is_stmt,isa 1
    1494                    ;----------------------------------------------------------------------
    1495                    ; 195 | if (procCom == 1){                                                     
    1496                    ;----------------------------------------------------------------------
    1497 000003d0 484F              LDR       A1, $C$CON21          ; [DPU_3_PIPE] |195|  ; [ORIG 16-BIT INS]
    1498 000003d2 6800              LDR       A1, [A1, #0]          ; [DPU_3_PIPE] |195|  ; [ORIG 16-BIT INS]
    1499 000003d4 2801              CMP       A1, #1                ; [DPU_3_PIPE] |195|  ; [ORIG 16-BIT INS]
    1500 000003d6 D105              BNE       ||$C$L21||            ; [DPU_3_PIPE] |195|  ; [ORIG 16-BIT INS]
    1501                            ; BRANCHCC OCCURS {||$C$L21||}   ; [] |195| 
    1502                    ;* --------------------------------------------------------------------------*
    1503                            .dwpsn  file "../gyro_init.c",line 196,column 4,is_stmt,isa 1
    1504                    ;----------------------------------------------------------------------
    1505                    ; 196 | procCom = 0;                                                           
    1506                    ;----------------------------------------------------------------------
    1507 000003d8 494D              LDR       A2, $C$CON21          ; [DPU_3_PIPE] |196|  ; [ORIG 16-BIT INS]
    1508 000003da 2000              MOVS      A1, #0                ; [DPU_3_PIPE] |196|  ; [ORIG 16-BIT INS]
    1509 000003dc 6008              STR       A1, [A2, #0]          ; [DPU_3_PIPE] |196|  ; [ORIG 16-BIT INS]
    1510                            .dwpsn  file "../gyro_init.c",line 197,column 4,is_stmt,isa 1
    1511                    ;----------------------------------------------------------------------
    1512                    ; 197 | delay--;                                                               
    1513                    ;----------------------------------------------------------------------
    1514 000003de 9800              LDR       A1, [SP, #0]          ; [DPU_3_PIPE] |197|  ; [ORIG 16-BIT INS]
    1515 000003e0 1E40              SUBS      A1, A1, #1            ; [DPU_3_PIPE] |197|  ; [ORIG 16-BIT INS]
TI ARM Assembler PC v5.1.6 Wed Feb 10 23:08:25 2016

Tools Copyright (c) 1996-2014 Texas Instruments Incorporated
gyro_init.asm                                                        PAGE   29

    1516 000003e2 9000              STR       A1, [SP, #0]          ; [DPU_3_PIPE] |197|  ; [ORIG 16-BIT INS]
    1517                    ;* --------------------------------------------------------------------------*
    1518 000003e4           ||$C$L21||:    
    1519                            .dwpsn  file "../gyro_init.c",line 194,column 9,is_stmt,isa 1
    1520 000003e4 9800              LDR       A1, [SP, #0]          ; [DPU_3_PIPE] |194|  ; [ORIG 16-BIT INS]
    1521 000003e6 2800              CMP       A1, #0                ; [DPU_3_PIPE] |194|  ; [ORIG 16-BIT INS]
    1522 000003e8 DCF2              BGT       ||$C$L20||            ; [DPU_3_PIPE] |194|  ; [ORIG 16-BIT INS]
    1523                            ; BRANCHCC OCCURS {||$C$L20||}   ; [] |194| 
    1524                    ;* --------------------------------------------------------------------------*
    1525                            .dwpsn  file "../gyro_init.c",line 200,column 1,is_stmt,isa 1
    1526                    ;* --------------------------------------------------------------------------*
    1527 000003ea           ||$C$L22||:    
    1528 000003ea B002              ADD       SP, SP, #8            ; [DPU_3_PIPE]  ; [ORIG 16-BIT INS]
    1529                            .dwcfi  cfa_offset, 0
    1530                    $C$DW$77        .dwtag  DW_TAG_TI_branch
    1531                            .dwattr $C$DW$77, DW_AT_low_pc(0x00)
    1532                            .dwattr $C$DW$77, DW_AT_TI_return
    1533 000003ec 4770              BX        LR                    ; [DPU_3_PIPE]  ; [ORIG 16-BIT INS]
    1534                            ; BRANCH OCCURS                  ; [] 
    1535                            .dwattr $C$DW$74, DW_AT_TI_end_file("../gyro_init.c")
    1536                            .dwattr $C$DW$74, DW_AT_TI_end_line(0xc8)
    1537                            .dwattr $C$DW$74, DW_AT_TI_end_column(0x01)
    1538                            .dwendentry
    1539                            .dwendtag $C$DW$74
    1540                    
    1541 000003ee                   .sect   ".text"
    1542                            .clink
    1543                            .thumbfunc setupUART
    1544 000003ee                   .thumb
    1545                            .global setupUART
    1546                    
    1547                    $C$DW$78        .dwtag  DW_TAG_subprogram, DW_AT_name("setupUART")
    1548                            .dwattr $C$DW$78, DW_AT_low_pc(setupUART)
    1549                            .dwattr $C$DW$78, DW_AT_high_pc(0x00)
    1550                            .dwattr $C$DW$78, DW_AT_TI_symbol_name("setupUART")
    1551                            .dwattr $C$DW$78, DW_AT_external
    1552                            .dwattr $C$DW$78, DW_AT_TI_begin_file("../gyro_init.c")
    1553                            .dwattr $C$DW$78, DW_AT_TI_begin_line(0xcf)
    1554                            .dwattr $C$DW$78, DW_AT_TI_begin_column(0x06)
    1555                            .dwattr $C$DW$78, DW_AT_decl_file("../gyro_init.c")
    1556                            .dwattr $C$DW$78, DW_AT_decl_line(0xcf)
    1557                            .dwattr $C$DW$78, DW_AT_decl_column(0x06)
    1558                            .dwattr $C$DW$78, DW_AT_TI_max_frame_size(0x08)
    1559                            .dwpsn  file "../gyro_init.c",line 207,column 21,is_stmt,address setupUART,isa 1
    1560                    
    1561                            .dwfde $C$DW$CIE, setupUART
    1562                    ;----------------------------------------------------------------------
    1563                    ; 207 | void setupUART(void){                                                  
    1564                    ; 208 | /// inizializza UART1                                                  
    1565                    ;----------------------------------------------------------------------
    1566                    
    1567                    ;*****************************************************************************
    1568                    ;* FUNCTION NAME: setupUART                                                  *
    1569                    ;*                                                                           *
    1570                    ;*   Regs Modified     : A1,A2,A3,A4,V9,SP,LR,SR,D0,D0_hi,D1,D1_hi,D2,D2_hi, *
TI ARM Assembler PC v5.1.6 Wed Feb 10 23:08:25 2016

Tools Copyright (c) 1996-2014 Texas Instruments Incorporated
gyro_init.asm                                                        PAGE   30

    1571                    ;*                           D3,D3_hi,D4,D4_hi,D5,D5_hi,D6,D6_hi,D7,D7_hi,   *
    1572                    ;*                           FPEXC,FPSCR                                     *
    1573                    ;*   Regs Used         : A1,A2,A3,A4,V9,SP,LR,SR,D0,D0_hi,D1,D1_hi,D2,D2_hi, *
    1574                    ;*                           D3,D3_hi,D4,D4_hi,D5,D5_hi,D6,D6_hi,D7,D7_hi,   *
    1575                    ;*                           FPEXC,FPSCR                                     *
    1576                    ;*   Local Frame Size  : 0 Args + 0 Auto + 4 Save = 4 byte                   *
    1577                    ;*****************************************************************************
    1578 000003ee           setupUART:
    1579                    ;* --------------------------------------------------------------------------*
    1580                            .dwcfi  cfa_offset, 0
    1581 000003ee B508              PUSH      {A4, LR}              ; [DPU_3_PIPE]  ; [ORIG 16-BIT INS]
    1582                            .dwcfi  cfa_offset, 8
    1583                            .dwcfi  save_reg_to_mem, 14, -4
    1584                            .dwcfi  save_reg_to_mem, 3, -8
    1585                            .dwpsn  file "../gyro_init.c",line 209,column 2,is_stmt,isa 1
    1586                    ;----------------------------------------------------------------------
    1587                    ; 209 | ConfigureUART(115200, UART1);                                          
    1588                    ; 210 | /// inizializza UART0                                                  
    1589                    ;----------------------------------------------------------------------
    1590 000003f0 30E1F44F          MOV       A1, #115200           ; [DPU_3_PIPE] |209|  ; [KEEP 32-BIT INS]
    1591 000003f4 2101              MOVS      A2, #1                ; [DPU_3_PIPE] |209|  ; [ORIG 16-BIT INS]
    1592                    $C$DW$79        .dwtag  DW_TAG_TI_branch
    1593                            .dwattr $C$DW$79, DW_AT_low_pc(0x00)
    1594                            .dwattr $C$DW$79, DW_AT_name("ConfigureUART")
    1595                            .dwattr $C$DW$79, DW_AT_TI_call
    1596 000003f6 FFFEF7FF!         BL        ConfigureUART         ; [DPU_3_PIPE] |209|  ; [KEEP 32-BIT INS]
    1597                            ; CALL OCCURS {ConfigureUART }   ; [] |209| 
    1598                            .dwpsn  file "../gyro_init.c",line 211,column 2,is_stmt,isa 1
    1599                    ;----------------------------------------------------------------------
    1600                    ; 211 | ConfigureUART(115200, UART0);                                          
    1601                    ; 212 | /// seleziona la uart a cui andra' 'uscita di PRINTF                   
    1602                    ;----------------------------------------------------------------------
    1603 000003fa 30E1F44F          MOV       A1, #115200           ; [DPU_3_PIPE] |211|  ; [KEEP 32-BIT INS]
    1604 000003fe 2100              MOVS      A2, #0                ; [DPU_3_PIPE] |211|  ; [ORIG 16-BIT INS]
    1605                    $C$DW$80        .dwtag  DW_TAG_TI_branch
    1606                            .dwattr $C$DW$80, DW_AT_low_pc(0x00)
    1607                            .dwattr $C$DW$80, DW_AT_name("ConfigureUART")
    1608                            .dwattr $C$DW$80, DW_AT_TI_call
    1609 00000400 FFFEF7FF!         BL        ConfigureUART         ; [DPU_3_PIPE] |211|  ; [KEEP 32-BIT INS]
    1610                            ; CALL OCCURS {ConfigureUART }   ; [] |211| 
    1611                            .dwpsn  file "../gyro_init.c",line 213,column 2,is_stmt,isa 1
    1612                    ;----------------------------------------------------------------------
    1613                    ; 213 | g_ui32Base = g_ui32UARTBase[UART0];                                    
    1614                    ;----------------------------------------------------------------------
    1615 00000404 4844              LDR       A1, $C$CON23          ; [DPU_3_PIPE] |213|  ; [ORIG 16-BIT INS]
    1616 00000406 4943              LDR       A2, $C$CON22          ; [DPU_3_PIPE] |213|  ; [ORIG 16-BIT INS]
    1617 00000408 6800              LDR       A1, [A1, #0]          ; [DPU_3_PIPE] |213|  ; [ORIG 16-BIT INS]
    1618 0000040a 6008              STR       A1, [A2, #0]          ; [DPU_3_PIPE] |213|  ; [ORIG 16-BIT INS]
    1619                            .dwpsn  file "../gyro_init.c",line 214,column 1,is_stmt,isa 1
    1620                    $C$DW$81        .dwtag  DW_TAG_TI_branch
    1621                            .dwattr $C$DW$81, DW_AT_low_pc(0x00)
    1622                            .dwattr $C$DW$81, DW_AT_TI_return
    1623 0000040c BD08              POP       {A4, PC}              ; [DPU_3_PIPE]  ; [ORIG 16-BIT INS]
    1624                            .dwcfi  cfa_offset, 0
    1625                            ; BRANCH OCCURS                  ; [] 
TI ARM Assembler PC v5.1.6 Wed Feb 10 23:08:25 2016

Tools Copyright (c) 1996-2014 Texas Instruments Incorporated
gyro_init.asm                                                        PAGE   31

    1626                            .dwattr $C$DW$78, DW_AT_TI_end_file("../gyro_init.c")
    1627                            .dwattr $C$DW$78, DW_AT_TI_end_line(0xd6)
    1628                            .dwattr $C$DW$78, DW_AT_TI_end_column(0x01)
    1629                            .dwendentry
    1630                            .dwendtag $C$DW$78
    1631                    
    1632                    ;******************************************************************************
    1633                    ;* STRINGS                                                                    *
    1634                    ;******************************************************************************
    1635 0000040e                   .sect   ".text"
    1636                            .align  4
    1637 00000410 4C        ||$C$SL2||:     .string "Lettura dal REG4 %d",10,0
         00000411 65       
         00000412 74       
         00000413 74       
         00000414 75       
         00000415 72       
         00000416 61       
         00000417 20       
         00000418 64       
         00000419 61       
         0000041a 6C       
         0000041b 20       
         0000041c 52       
         0000041d 45       
         0000041e 47       
         0000041f 34       
         00000420 20       
         00000421 25       
         00000422 64       
         00000423 0A       
         00000424 00       
    1638                    ;******************************************************************************
    1639                    ;* FLOATING-POINT CONSTANTS                                                   *
    1640                    ;******************************************************************************
    1641 00000425                   .sect   ".text"
    1642                            .align  4
    1643 00000428 3C7A0000  ||$C$FL3||:     .word   03c7a0000h      ; 0.0152587890625
    1644 0000042c                   .sect   ".text"
    1645                            .clink
    1646                            .thumbfunc PRINT_WELCOME
    1647 0000042c                   .thumb
    1648                            .global PRINT_WELCOME
    1649                    
    1650                    $C$DW$82        .dwtag  DW_TAG_subprogram, DW_AT_name("PRINT_WELCOME")
    1651                            .dwattr $C$DW$82, DW_AT_low_pc(PRINT_WELCOME)
    1652                            .dwattr $C$DW$82, DW_AT_high_pc(0x00)
    1653                            .dwattr $C$DW$82, DW_AT_TI_symbol_name("PRINT_WELCOME")
    1654                            .dwattr $C$DW$82, DW_AT_external
    1655                            .dwattr $C$DW$82, DW_AT_TI_begin_file("../gyro_init.c")
    1656                            .dwattr $C$DW$82, DW_AT_TI_begin_line(0xda)
    1657                            .dwattr $C$DW$82, DW_AT_TI_begin_column(0x06)
    1658                            .dwattr $C$DW$82, DW_AT_decl_file("../gyro_init.c")
    1659                            .dwattr $C$DW$82, DW_AT_decl_line(0xda)
    1660                            .dwattr $C$DW$82, DW_AT_decl_column(0x06)
TI ARM Assembler PC v5.1.6 Wed Feb 10 23:08:25 2016

Tools Copyright (c) 1996-2014 Texas Instruments Incorporated
gyro_init.asm                                                        PAGE   32

    1661                            .dwattr $C$DW$82, DW_AT_TI_max_frame_size(0x10)
    1662                            .dwpsn  file "../gyro_init.c",line 218,column 25,is_stmt,address PRINT_WELCOME,isa 1
    1663                    
    1664                            .dwfde $C$DW$CIE, PRINT_WELCOME
    1665                    ;----------------------------------------------------------------------
    1666                    ; 218 | void PRINT_WELCOME(void){                                              
    1667                    ; 219 | int i, valore;                                                         
    1668                    ;----------------------------------------------------------------------
    1669                    
    1670                    ;*****************************************************************************
    1671                    ;* FUNCTION NAME: PRINT_WELCOME                                              *
    1672                    ;*                                                                           *
    1673                    ;*   Regs Modified     : A1,A2,A3,A4,V9,SP,LR,SR,D0,D0_hi,D1,D1_hi,D2,D2_hi, *
    1674                    ;*                           D3,D3_hi,D4,D4_hi,D5,D5_hi,D6,D6_hi,D7,D7_hi,   *
    1675                    ;*                           FPEXC,FPSCR                                     *
    1676                    ;*   Regs Used         : A1,A2,A3,A4,V9,SP,LR,SR,D0,D0_hi,D1,D1_hi,D2,D2_hi, *
    1677                    ;*                           D3,D3_hi,D4,D4_hi,D5,D5_hi,D6,D6_hi,D7,D7_hi,   *
    1678                    ;*                           FPEXC,FPSCR                                     *
    1679                    ;*   Local Frame Size  : 0 Args + 8 Auto + 4 Save = 12 byte                  *
    1680                    ;*****************************************************************************
    1681 0000042c           PRINT_WELCOME:
    1682                    ;* --------------------------------------------------------------------------*
    1683                            .dwcfi  cfa_offset, 0
    1684 0000042c B50E              PUSH      {A2, A3, A4, LR}      ; [DPU_3_PIPE]  ; [ORIG 16-BIT INS]
    1685                            .dwcfi  cfa_offset, 16
    1686                            .dwcfi  save_reg_to_mem, 14, -4
    1687                            .dwcfi  save_reg_to_mem, 3, -8
    1688                            .dwcfi  save_reg_to_mem, 2, -12
    1689                            .dwcfi  save_reg_to_mem, 1, -16
    1690                    $C$DW$83        .dwtag  DW_TAG_variable, DW_AT_name("i")
    1691                            .dwattr $C$DW$83, DW_AT_TI_symbol_name("i")
    1692                            .dwattr $C$DW$83, DW_AT_type(*$C$DW$T$10)
    1693                            .dwattr $C$DW$83, DW_AT_location[DW_OP_breg13 0]
    1694                    $C$DW$84        .dwtag  DW_TAG_variable, DW_AT_name("valore")
    1695                            .dwattr $C$DW$84, DW_AT_TI_symbol_name("valore")
    1696                            .dwattr $C$DW$84, DW_AT_type(*$C$DW$T$10)
    1697                            .dwattr $C$DW$84, DW_AT_location[DW_OP_breg13 4]
    1698                            .dwpsn  file "../gyro_init.c",line 220,column 6,is_stmt,isa 1
    1699                    ;----------------------------------------------------------------------
    1700                    ; 220 | for(i = 0; i < 10000; i++);                                            
    1701                    ;----------------------------------------------------------------------
    1702 0000042e 2000              MOVS      A1, #0                ; [DPU_3_PIPE] |220|  ; [ORIG 16-BIT INS]
    1703 00000430 9000              STR       A1, [SP, #0]          ; [DPU_3_PIPE] |220|  ; [ORIG 16-BIT INS]
    1704                            .dwpsn  file "../gyro_init.c",line 220,column 13,is_stmt,isa 1
    1705 00000432 9800              LDR       A1, [SP, #0]          ; [DPU_3_PIPE] |220|  ; [ORIG 16-BIT INS]
    1706 00000434 7110F242          MOV       A2, #10000            ; [DPU_3_PIPE] |220|  ; [KEEP 32-BIT INS]
    1707 00000438 4281              CMP       A2, A1                ; [DPU_3_PIPE] |220|  ; [ORIG 16-BIT INS]
    1708 0000043a DD07              BLE       ||$C$L24||            ; [DPU_3_PIPE] |220|  ; [ORIG 16-BIT INS]
    1709                            ; BRANCHCC OCCURS {||$C$L24||}   ; [] |220| 
    1710                    ;* --------------------------------------------------------------------------*
    1711                    ;*   BEGIN LOOP ||$C$L23||
    1712                    ;*
    1713                    ;*   Loop source line                : 220
    1714                    ;*   Loop closing brace source line  : 220
    1715                    ;*   Known Minimum Trip Count        : 1
TI ARM Assembler PC v5.1.6 Wed Feb 10 23:08:25 2016

Tools Copyright (c) 1996-2014 Texas Instruments Incorporated
gyro_init.asm                                                        PAGE   33

    1716                    ;*   Known Maximum Trip Count        : 4294967295
    1717                    ;*   Known Max Trip Count Factor     : 1
    1718                    ;* --------------------------------------------------------------------------*
    1719 0000043c           ||$C$L23||:    
    1720                            .dwpsn  file "../gyro_init.c",line 220,column 24,is_stmt,isa 1
    1721 0000043c 9800              LDR       A1, [SP, #0]          ; [DPU_3_PIPE] |220|  ; [ORIG 16-BIT INS]
    1722 0000043e 1C40              ADDS      A1, A1, #1            ; [DPU_3_PIPE] |220|  ; [ORIG 16-BIT INS]
    1723 00000440 9000              STR       A1, [SP, #0]          ; [DPU_3_PIPE] |220|  ; [ORIG 16-BIT INS]
    1724                            .dwpsn  file "../gyro_init.c",line 220,column 13,is_stmt,isa 1
    1725 00000442 9800              LDR       A1, [SP, #0]          ; [DPU_3_PIPE] |220|  ; [ORIG 16-BIT INS]
    1726 00000444 7110F242          MOV       A2, #10000            ; [DPU_3_PIPE] |220|  ; [KEEP 32-BIT INS]
    1727 00000448 4281              CMP       A2, A1                ; [DPU_3_PIPE] |220|  ; [ORIG 16-BIT INS]
    1728 0000044a DCF7              BGT       ||$C$L23||            ; [DPU_3_PIPE] |220|  ; [ORIG 16-BIT INS]
    1729                            ; BRANCHCC OCCURS {||$C$L23||}   ; [] |220| 
    1730                    ;* --------------------------------------------------------------------------*
    1731 0000044c           ||$C$L24||:    
    1732                            .dwpsn  file "../gyro_init.c",line 221,column 2,is_stmt,isa 1
    1733                    ;----------------------------------------------------------------------
    1734                    ; 221 | PRINTF("Modulo robotico");                                             
    1735                    ;----------------------------------------------------------------------
    1736 0000044c A00E              ADR       A1, $C$SL3            ; [DPU_3_PIPE] |221|  ; [ORIG 16-BIT INS]
    1737                    $C$DW$85        .dwtag  DW_TAG_TI_branch
    1738                            .dwattr $C$DW$85, DW_AT_low_pc(0x00)
    1739                            .dwattr $C$DW$85, DW_AT_name("PRINTF")
    1740                            .dwattr $C$DW$85, DW_AT_TI_call
    1741 0000044e FFFEF7FF!         BL        PRINTF                ; [DPU_3_PIPE] |221|  ; [KEEP 32-BIT INS]
    1742                            ; CALL OCCURS {PRINTF }          ; [] |221| 
    1743                            .dwpsn  file "../gyro_init.c",line 222,column 6,is_stmt,isa 1
    1744                    ;----------------------------------------------------------------------
    1745                    ; 222 | for(i = 0; i < 10000; i++);                                            
    1746                    ;----------------------------------------------------------------------
    1747 00000452 2000              MOVS      A1, #0                ; [DPU_3_PIPE] |222|  ; [ORIG 16-BIT INS]
    1748 00000454 9000              STR       A1, [SP, #0]          ; [DPU_3_PIPE] |222|  ; [ORIG 16-BIT INS]
    1749                            .dwpsn  file "../gyro_init.c",line 222,column 13,is_stmt,isa 1
    1750 00000456 9800              LDR       A1, [SP, #0]          ; [DPU_3_PIPE] |222|  ; [ORIG 16-BIT INS]
    1751 00000458 7110F242          MOV       A2, #10000            ; [DPU_3_PIPE] |222|  ; [KEEP 32-BIT INS]
    1752 0000045c 4281              CMP       A2, A1                ; [DPU_3_PIPE] |222|  ; [ORIG 16-BIT INS]
    1753 0000045e DD07              BLE       ||$C$L26||            ; [DPU_3_PIPE] |222|  ; [ORIG 16-BIT INS]
    1754                            ; BRANCHCC OCCURS {||$C$L26||}   ; [] |222| 
    1755                    ;* --------------------------------------------------------------------------*
    1756                    ;*   BEGIN LOOP ||$C$L25||
    1757                    ;*
    1758                    ;*   Loop source line                : 222
    1759                    ;*   Loop closing brace source line  : 222
    1760                    ;*   Known Minimum Trip Count        : 1
    1761                    ;*   Known Maximum Trip Count        : 4294967295
    1762                    ;*   Known Max Trip Count Factor     : 1
    1763                    ;* --------------------------------------------------------------------------*
    1764 00000460           ||$C$L25||:    
    1765                            .dwpsn  file "../gyro_init.c",line 222,column 24,is_stmt,isa 1
    1766 00000460 9800              LDR       A1, [SP, #0]          ; [DPU_3_PIPE] |222|  ; [ORIG 16-BIT INS]
    1767 00000462 1C40              ADDS      A1, A1, #1            ; [DPU_3_PIPE] |222|  ; [ORIG 16-BIT INS]
    1768 00000464 9000              STR       A1, [SP, #0]          ; [DPU_3_PIPE] |222|  ; [ORIG 16-BIT INS]
    1769                            .dwpsn  file "../gyro_init.c",line 222,column 13,is_stmt,isa 1
    1770 00000466 9800              LDR       A1, [SP, #0]          ; [DPU_3_PIPE] |222|  ; [ORIG 16-BIT INS]
TI ARM Assembler PC v5.1.6 Wed Feb 10 23:08:25 2016

Tools Copyright (c) 1996-2014 Texas Instruments Incorporated
gyro_init.asm                                                        PAGE   34

    1771 00000468 7110F242          MOV       A2, #10000            ; [DPU_3_PIPE] |222|  ; [KEEP 32-BIT INS]
    1772 0000046c 4281              CMP       A2, A1                ; [DPU_3_PIPE] |222|  ; [ORIG 16-BIT INS]
    1773 0000046e DCF7              BGT       ||$C$L25||            ; [DPU_3_PIPE] |222|  ; [ORIG 16-BIT INS]
    1774                            ; BRANCHCC OCCURS {||$C$L25||}   ; [] |222| 
    1775                    ;* --------------------------------------------------------------------------*
    1776 00000470           ||$C$L26||:    
    1777                            .dwpsn  file "../gyro_init.c",line 223,column 2,is_stmt,isa 1
    1778                    ;----------------------------------------------------------------------
    1779                    ; 223 | PRINTF("Lettura dal clock\n");                                         
    1780                    ;----------------------------------------------------------------------
    1781 00000470 A009              ADR       A1, $C$SL4            ; [DPU_3_PIPE] |223|  ; [ORIG 16-BIT INS]
    1782                    $C$DW$86        .dwtag  DW_TAG_TI_branch
    1783                            .dwattr $C$DW$86, DW_AT_low_pc(0x00)
    1784                            .dwattr $C$DW$86, DW_AT_name("PRINTF")
    1785                            .dwattr $C$DW$86, DW_AT_TI_call
    1786 00000472 FFFEF7FF!         BL        PRINTF                ; [DPU_3_PIPE] |223|  ; [KEEP 32-BIT INS]
    1787                            ; CALL OCCURS {PRINTF }          ; [] |223| 
    1788                            .dwpsn  file "../gyro_init.c",line 224,column 2,is_stmt,isa 1
    1789                    ;----------------------------------------------------------------------
    1790                    ; 224 | valore = SysCtlClockGet();                                             
    1791                    ;----------------------------------------------------------------------
    1792                    $C$DW$87        .dwtag  DW_TAG_TI_branch
    1793                            .dwattr $C$DW$87, DW_AT_low_pc(0x00)
    1794                            .dwattr $C$DW$87, DW_AT_name("SysCtlClockGet")
    1795                            .dwattr $C$DW$87, DW_AT_TI_call
    1796 00000476 FFFEF7FF!         BL        SysCtlClockGet        ; [DPU_3_PIPE] |224|  ; [KEEP 32-BIT INS]
    1797                            ; CALL OCCURS {SysCtlClockGet }  ; [] |224| 
    1798 0000047a 9001              STR       A1, [SP, #4]          ; [DPU_3_PIPE] |224|  ; [ORIG 16-BIT INS]
    1799                            .dwpsn  file "../gyro_init.c",line 225,column 2,is_stmt,isa 1
    1800                    ;----------------------------------------------------------------------
    1801                    ; 225 | PRINTF("Frequenza del clock %d\n", valore);                            
    1802                    ;----------------------------------------------------------------------
    1803 0000047c 9901              LDR       A2, [SP, #4]          ; [DPU_3_PIPE] |225|  ; [ORIG 16-BIT INS]
    1804 0000047e A00B              ADR       A1, $C$SL5            ; [DPU_3_PIPE] |225|  ; [ORIG 16-BIT INS]
    1805                    $C$DW$88        .dwtag  DW_TAG_TI_branch
    1806                            .dwattr $C$DW$88, DW_AT_low_pc(0x00)
    1807                            .dwattr $C$DW$88, DW_AT_name("PRINTF")
    1808                            .dwattr $C$DW$88, DW_AT_TI_call
    1809 00000480 FFFEF7FF!         BL        PRINTF                ; [DPU_3_PIPE] |225|  ; [KEEP 32-BIT INS]
    1810                            ; CALL OCCURS {PRINTF }          ; [] |225| 
    1811                            .dwpsn  file "../gyro_init.c",line 226,column 1,is_stmt,isa 1
    1812                    $C$DW$89        .dwtag  DW_TAG_TI_branch
    1813                            .dwattr $C$DW$89, DW_AT_low_pc(0x00)
    1814                            .dwattr $C$DW$89, DW_AT_TI_return
    1815 00000484 BD0E              POP       {A2, A3, A4, PC}      ; [DPU_3_PIPE]  ; [ORIG 16-BIT INS]
    1816                            .dwcfi  cfa_offset, 0
    1817                            ; BRANCH OCCURS                  ; [] 
    1818                            .dwattr $C$DW$82, DW_AT_TI_end_file("../gyro_init.c")
    1819                            .dwattr $C$DW$82, DW_AT_TI_end_line(0xe2)
    1820                            .dwattr $C$DW$82, DW_AT_TI_end_column(0x01)
    1821                            .dwendentry
    1822                            .dwendtag $C$DW$82
    1823                    
    1824                    ;******************************************************************************
    1825                    ;* STRINGS                                                                    *
TI ARM Assembler PC v5.1.6 Wed Feb 10 23:08:25 2016

Tools Copyright (c) 1996-2014 Texas Instruments Incorporated
gyro_init.asm                                                        PAGE   35

    1826                    ;******************************************************************************
    1827 00000486                   .sect   ".text"
    1828                            .align  4
    1829 00000488 4D        ||$C$SL3||:     .string "Modulo robotico",0
         00000489 6F       
         0000048a 64       
         0000048b 75       
         0000048c 6C       
         0000048d 6F       
         0000048e 20       
         0000048f 72       
         00000490 6F       
         00000491 62       
         00000492 6F       
         00000493 74       
         00000494 69       
         00000495 63       
         00000496 6F       
         00000497 00       
    1830                            .align  4
    1831 00000498 4C        ||$C$SL4||:     .string "Lettura dal clock",10,0
         00000499 65       
         0000049a 74       
         0000049b 74       
         0000049c 75       
         0000049d 72       
         0000049e 61       
         0000049f 20       
         000004a0 64       
         000004a1 61       
         000004a2 6C       
         000004a3 20       
         000004a4 63       
         000004a5 6C       
         000004a6 6F       
         000004a7 63       
         000004a8 6B       
         000004a9 0A       
         000004aa 00       
    1832                            .align  4
    1833 000004ac 46        ||$C$SL5||:     .string "Frequenza del clock %d",10,0
         000004ad 72       
         000004ae 65       
         000004af 71       
         000004b0 75       
         000004b1 65       
         000004b2 6E       
         000004b3 7A       
         000004b4 61       
         000004b5 20       
         000004b6 64       
         000004b7 65       
         000004b8 6C       
         000004b9 20       
         000004ba 63       
TI ARM Assembler PC v5.1.6 Wed Feb 10 23:08:25 2016

Tools Copyright (c) 1996-2014 Texas Instruments Incorporated
gyro_init.asm                                                        PAGE   36

         000004bb 6C       
         000004bc 6F       
         000004bd 63       
         000004be 6B       
         000004bf 20       
         000004c0 25       
         000004c1 64       
         000004c2 0A       
         000004c3 00       
    1834                    ;******************************************************************************
    1835                    ;* CONSTANT TABLE                                                             *
    1836                    ;******************************************************************************
    1837 000004c4                   .sect   ".text"
    1838                            .align  4
    1839 000004c2 0044000A  ||$C$CON2||:    .bits   16777284,32
         000004c6 00000100 
    1840                            .align  4
    1841 000004c6 05400100  ||$C$CON3||:    .bits   -1056963264,32
         000004ca 0000C100 
    1842                            .align  4
    1843 000004ca 0805C100  ||$C$CON4||:    .bits   -268433403,32
         000004ce 0000F000 
    1844                            .align  4
    1845 000004ce 0020F000  ||$C$CON5||:    .bits   16777248,32
         000004d2 00000100 
    1846                            .align  4
    1847 000004d2 54000100  ||$C$CON6||:    .bits   1073894400,32
         000004d6 00004002 
    1848                            .align  4
    1849 000004d6 54204002  ||$C$CON7||:    .bits   1073894432,32
         000004da 00004002 
    1850                            .align  4
    1851 000004da 55004002  ||$C$CON8||:    .bits   1073894656,32
         000004de 00004002 
    1852                            .align  4
    1853 000004de 55184002  ||$C$CON9||:    .bits   1073894680,32
         000004e2 00004002 
    1854                            .align  4
    1855 000004e2 55104002  ||$C$CON10||:   .bits   1073894672,32
         000004e6 00004002 
    1856                            .align  4
    1857 000004e6 551C4002  ||$C$CON11||:   .bits   1073894684,32
         000004ea 00004002 
    1858                            .align  4
    1859 000004ea 50404002  ||$C$CON12||:   .bits   1073893440,32
         000004ee 00004002 
    1860                            .align  4
    1861 000004ee 08014002  ||$C$CON13||:   .bits   -268433407,32
         000004f2 0000F000 
    1862                            .align  4
    1863 000004f2 5400F000  ||$C$CON14||:   .bits   1073763328,32
         000004f6 00004000 
    1864                            .align  4
    1865 000004f6 54204000  ||$C$CON15||:   .bits   1073763360,32
         000004fa 00004000 
TI ARM Assembler PC v5.1.6 Wed Feb 10 23:08:25 2016

Tools Copyright (c) 1996-2014 Texas Instruments Incorporated
gyro_init.asm                                                        PAGE   37

    1866                            .align  4
    1867 000004fa 55004000  ||$C$CON16||:   .bits   1073763584,32
         000004fe 00004000 
    1868                            .align  4
    1869 000004fe 55184000  ||$C$CON17||:   .bits   1073763608,32
         00000502 00004000 
    1870                            .align  4
    1871 00000502 551C4000  ||$C$CON18||:   .bits   1073763612,32
         00000506 00004000 
    1872                            .align  4
    1873 00000506 50044000  ||$C$CON19||:   .bits   1073762308,32
         0000050a 00004000 
    1874                            .align  4
    1875 0000050a 50204000  ||$C$CON20||:   .bits   1073893408,32
         0000050e 00004002 
    1876                            .align  4
    1877 0000050e 00004002! ||$C$CON21||:   .bits   procCom,32
         00000512 00000000 
    1878                            .align  4
    1879 00000512 00000000! ||$C$CON22||:   .bits   g_ui32Base,32
         00000516 00000000 
    1880                            .align  4
    1881 00000516 00000000! ||$C$CON23||:   .bits   g_ui32UARTBase,32
         0000051a 00000000 
    1882                    ;*****************************************************************************
    1883                    ;* UNDEFINED EXTERNAL REFERENCES                                             *
    1884                    ;*****************************************************************************
    1885                            .global PRINTF
    1886                            .global I2CReceiveN
    1887                            .global I2CReceive
    1888                            .global I2CSend
    1889                            .global GPIOPinWrite
    1890                            .global SysCtlClockGet
    1891                            .global ConfigureUART
    1892                            .global procCom
    1893                            .global g_ui32Base
    1894                            .global g_ui32UARTBase
    1895                    
    1896                    ;******************************************************************************
    1897                    ;* BUILD ATTRIBUTES                                                           *
    1898                    ;******************************************************************************
    1899                            .battr "aeabi", Tag_File, 1, Tag_ABI_PCS_wchar_t(2)
    1900                            .battr "aeabi", Tag_File, 1, Tag_ABI_FP_rounding(0)
    1901                            .battr "aeabi", Tag_File, 1, Tag_ABI_FP_denormal(0)
    1902                            .battr "aeabi", Tag_File, 1, Tag_ABI_FP_exceptions(0)
    1903                            .battr "aeabi", Tag_File, 1, Tag_ABI_FP_number_model(1)
    1904                            .battr "aeabi", Tag_File, 1, Tag_ABI_enum_size(0)
    1905                            .battr "aeabi", Tag_File, 1, Tag_ABI_optimization_goals(5)
    1906                            .battr "aeabi", Tag_File, 1, Tag_ABI_FP_optimization_goals(0)
    1907                            .battr "TI", Tag_File, 1, Tag_Bitfield_layout(2)
    1908                            .battr "TI", Tag_File, 1, Tag_FP_interface(1)
    1909                    
    1910                    ;******************************************************************************
    1911                    ;* TYPE INFORMATION                                                           *
    1912                    ;******************************************************************************
TI ARM Assembler PC v5.1.6 Wed Feb 10 23:08:25 2016

Tools Copyright (c) 1996-2014 Texas Instruments Incorporated
gyro_init.asm                                                        PAGE   38

    1913                    
    1914                    $C$DW$T$20      .dwtag  DW_TAG_union_type
    1915                            .dwattr $C$DW$T$20, DW_AT_byte_size(0x10)
    1916                    $C$DW$90        .dwtag  DW_TAG_member
    1917                            .dwattr $C$DW$90, DW_AT_type(*$C$DW$T$19)
    1918                            .dwattr $C$DW$90, DW_AT_name("_Word")
    1919                            .dwattr $C$DW$90, DW_AT_TI_symbol_name("_Word")
    1920                            .dwattr $C$DW$90, DW_AT_data_member_location[DW_OP_plus_uconst 0x0]
    1921                            .dwattr $C$DW$90, DW_AT_accessibility(DW_ACCESS_public)
    1922                            .dwattr $C$DW$90, DW_AT_decl_file("C:/ti6/ccsv6/tools/compiler/arm_5.1.6/include/ymath.h")
    1923                            .dwattr $C$DW$90, DW_AT_decl_line(0x81)
    1924                            .dwattr $C$DW$90, DW_AT_decl_column(0x11)
    1925                    $C$DW$91        .dwtag  DW_TAG_member
    1926                            .dwattr $C$DW$91, DW_AT_type(*$C$DW$T$16)
    1927                            .dwattr $C$DW$91, DW_AT_name("_Float")
    1928                            .dwattr $C$DW$91, DW_AT_TI_symbol_name("_Float")
    1929                            .dwattr $C$DW$91, DW_AT_data_member_location[DW_OP_plus_uconst 0x0]
    1930                            .dwattr $C$DW$91, DW_AT_accessibility(DW_ACCESS_public)
    1931                            .dwattr $C$DW$91, DW_AT_decl_file("C:/ti6/ccsv6/tools/compiler/arm_5.1.6/include/ymath.h")
    1932                            .dwattr $C$DW$91, DW_AT_decl_line(0x82)
    1933                            .dwattr $C$DW$91, DW_AT_decl_column(0x08)
    1934                    $C$DW$92        .dwtag  DW_TAG_member
    1935                            .dwattr $C$DW$92, DW_AT_type(*$C$DW$T$17)
    1936                            .dwattr $C$DW$92, DW_AT_name("_Double")
    1937                            .dwattr $C$DW$92, DW_AT_TI_symbol_name("_Double")
    1938                            .dwattr $C$DW$92, DW_AT_data_member_location[DW_OP_plus_uconst 0x0]
    1939                            .dwattr $C$DW$92, DW_AT_accessibility(DW_ACCESS_public)
    1940                            .dwattr $C$DW$92, DW_AT_decl_file("C:/ti6/ccsv6/tools/compiler/arm_5.1.6/include/ymath.h")
    1941                            .dwattr $C$DW$92, DW_AT_decl_line(0x83)
    1942                            .dwattr $C$DW$92, DW_AT_decl_column(0x09)
    1943                    $C$DW$93        .dwtag  DW_TAG_member
    1944                            .dwattr $C$DW$93, DW_AT_type(*$C$DW$T$18)
    1945                            .dwattr $C$DW$93, DW_AT_name("_Long_double")
    1946                            .dwattr $C$DW$93, DW_AT_TI_symbol_name("_Long_double")
    1947                            .dwattr $C$DW$93, DW_AT_data_member_location[DW_OP_plus_uconst 0x0]
    1948                            .dwattr $C$DW$93, DW_AT_accessibility(DW_ACCESS_public)
    1949                            .dwattr $C$DW$93, DW_AT_decl_file("C:/ti6/ccsv6/tools/compiler/arm_5.1.6/include/ymath.h")
    1950                            .dwattr $C$DW$93, DW_AT_decl_line(0x84)
    1951                            .dwattr $C$DW$93, DW_AT_decl_column(0x0e)
    1952                            .dwendtag $C$DW$T$20
    1953                    
    1954                            .dwattr $C$DW$T$20, DW_AT_decl_file("C:/ti6/ccsv6/tools/compiler/arm_5.1.6/include/ymath.h")
    1955                            .dwattr $C$DW$T$20, DW_AT_decl_line(0x80)
    1956                            .dwattr $C$DW$T$20, DW_AT_decl_column(0x02)
    1957                    $C$DW$T$25      .dwtag  DW_TAG_typedef, DW_AT_name("_Dconst")
    1958                            .dwattr $C$DW$T$25, DW_AT_type(*$C$DW$T$20)
    1959                            .dwattr $C$DW$T$25, DW_AT_language(DW_LANG_C)
    1960                            .dwattr $C$DW$T$25, DW_AT_decl_file("C:/ti6/ccsv6/tools/compiler/arm_5.1.6/include/ymath.h")
    1961                            .dwattr $C$DW$T$25, DW_AT_decl_line(0x85)
    1962                            .dwattr $C$DW$T$25, DW_AT_decl_column(0x04)
    1963                    $C$DW$T$2       .dwtag  DW_TAG_unspecified_type
    1964                            .dwattr $C$DW$T$2, DW_AT_name("void")
    1965                    $C$DW$T$3       .dwtag  DW_TAG_pointer_type
    1966                            .dwattr $C$DW$T$3, DW_AT_type(*$C$DW$T$2)
    1967                            .dwattr $C$DW$T$3, DW_AT_address_class(0x20)
TI ARM Assembler PC v5.1.6 Wed Feb 10 23:08:25 2016

Tools Copyright (c) 1996-2014 Texas Instruments Incorporated
gyro_init.asm                                                        PAGE   39

    1968                    $C$DW$T$4       .dwtag  DW_TAG_base_type
    1969                            .dwattr $C$DW$T$4, DW_AT_encoding(DW_ATE_boolean)
    1970                            .dwattr $C$DW$T$4, DW_AT_name("bool")
    1971                            .dwattr $C$DW$T$4, DW_AT_byte_size(0x01)
    1972                    $C$DW$T$5       .dwtag  DW_TAG_base_type
    1973                            .dwattr $C$DW$T$5, DW_AT_encoding(DW_ATE_signed_char)
    1974                            .dwattr $C$DW$T$5, DW_AT_name("signed char")
    1975                            .dwattr $C$DW$T$5, DW_AT_byte_size(0x01)
    1976                    $C$DW$T$52      .dwtag  DW_TAG_typedef, DW_AT_name("int8_t")
    1977                            .dwattr $C$DW$T$52, DW_AT_type(*$C$DW$T$5)
    1978                            .dwattr $C$DW$T$52, DW_AT_language(DW_LANG_C)
    1979                            .dwattr $C$DW$T$52, DW_AT_decl_file("C:/ti6/ccsv6/tools/compiler/arm_5.1.6/include/stdint.h")
    1980                            .dwattr $C$DW$T$52, DW_AT_decl_line(0x2a)
    1981                            .dwattr $C$DW$T$52, DW_AT_decl_column(0x1d)
    1982                    $C$DW$T$53      .dwtag  DW_TAG_typedef, DW_AT_name("int_least8_t")
    1983                            .dwattr $C$DW$T$53, DW_AT_type(*$C$DW$T$52)
    1984                            .dwattr $C$DW$T$53, DW_AT_language(DW_LANG_C)
    1985                            .dwattr $C$DW$T$53, DW_AT_decl_file("C:/ti6/ccsv6/tools/compiler/arm_5.1.6/include/stdint.h")
    1986                            .dwattr $C$DW$T$53, DW_AT_decl_line(0x37)
    1987                            .dwattr $C$DW$T$53, DW_AT_decl_column(0x17)
    1988                    $C$DW$T$6       .dwtag  DW_TAG_base_type
    1989                            .dwattr $C$DW$T$6, DW_AT_encoding(DW_ATE_unsigned_char)
    1990                            .dwattr $C$DW$T$6, DW_AT_name("unsigned char")
    1991                            .dwattr $C$DW$T$6, DW_AT_byte_size(0x01)
    1992                    $C$DW$T$30      .dwtag  DW_TAG_typedef, DW_AT_name("uint8_t")
    1993                            .dwattr $C$DW$T$30, DW_AT_type(*$C$DW$T$6)
    1994                            .dwattr $C$DW$T$30, DW_AT_language(DW_LANG_C)
    1995                            .dwattr $C$DW$T$30, DW_AT_decl_file("C:/ti6/ccsv6/tools/compiler/arm_5.1.6/include/stdint.h")
    1996                            .dwattr $C$DW$T$30, DW_AT_decl_line(0x2b)
    1997                            .dwattr $C$DW$T$30, DW_AT_decl_column(0x1c)
    1998                    $C$DW$T$31      .dwtag  DW_TAG_pointer_type
    1999                            .dwattr $C$DW$T$31, DW_AT_type(*$C$DW$T$30)
    2000                            .dwattr $C$DW$T$31, DW_AT_address_class(0x20)
    2001                    
    2002                    $C$DW$T$54      .dwtag  DW_TAG_array_type
    2003                            .dwattr $C$DW$T$54, DW_AT_type(*$C$DW$T$30)
    2004                            .dwattr $C$DW$T$54, DW_AT_language(DW_LANG_C)
    2005                            .dwattr $C$DW$T$54, DW_AT_byte_size(0x08)
    2006                    $C$DW$94        .dwtag  DW_TAG_subrange_type
    2007                            .dwattr $C$DW$94, DW_AT_upper_bound(0x07)
    2008                            .dwendtag $C$DW$T$54
    2009                    
    2010                    $C$DW$T$55      .dwtag  DW_TAG_typedef, DW_AT_name("uint_least8_t")
    2011                            .dwattr $C$DW$T$55, DW_AT_type(*$C$DW$T$30)
    2012                            .dwattr $C$DW$T$55, DW_AT_language(DW_LANG_C)
    2013                            .dwattr $C$DW$T$55, DW_AT_decl_file("C:/ti6/ccsv6/tools/compiler/arm_5.1.6/include/stdint.h")
    2014                            .dwattr $C$DW$T$55, DW_AT_decl_line(0x38)
    2015                            .dwattr $C$DW$T$55, DW_AT_decl_column(0x16)
    2016                    $C$DW$T$7       .dwtag  DW_TAG_base_type
    2017                            .dwattr $C$DW$T$7, DW_AT_encoding(DW_ATE_signed_char)
    2018                            .dwattr $C$DW$T$7, DW_AT_name("wchar_t")
    2019                            .dwattr $C$DW$T$7, DW_AT_byte_size(0x02)
    2020                    $C$DW$T$8       .dwtag  DW_TAG_base_type
    2021                            .dwattr $C$DW$T$8, DW_AT_encoding(DW_ATE_signed)
    2022                            .dwattr $C$DW$T$8, DW_AT_name("short")
TI ARM Assembler PC v5.1.6 Wed Feb 10 23:08:25 2016

Tools Copyright (c) 1996-2014 Texas Instruments Incorporated
gyro_init.asm                                                        PAGE   40

    2023                            .dwattr $C$DW$T$8, DW_AT_byte_size(0x02)
    2024                    $C$DW$T$23      .dwtag  DW_TAG_typedef, DW_AT_name("int16_t")
    2025                            .dwattr $C$DW$T$23, DW_AT_type(*$C$DW$T$8)
    2026                            .dwattr $C$DW$T$23, DW_AT_language(DW_LANG_C)
    2027                            .dwattr $C$DW$T$23, DW_AT_decl_file("C:/ti6/ccsv6/tools/compiler/arm_5.1.6/include/stdint.h")
    2028                            .dwattr $C$DW$T$23, DW_AT_decl_line(0x2c)
    2029                            .dwattr $C$DW$T$23, DW_AT_decl_column(0x1d)
    2030                    $C$DW$T$56      .dwtag  DW_TAG_typedef, DW_AT_name("int_least16_t")
    2031                            .dwattr $C$DW$T$56, DW_AT_type(*$C$DW$T$23)
    2032                            .dwattr $C$DW$T$56, DW_AT_language(DW_LANG_C)
    2033                            .dwattr $C$DW$T$56, DW_AT_decl_file("C:/ti6/ccsv6/tools/compiler/arm_5.1.6/include/stdint.h")
    2034                            .dwattr $C$DW$T$56, DW_AT_decl_line(0x3a)
    2035                            .dwattr $C$DW$T$56, DW_AT_decl_column(0x17)
    2036                    $C$DW$T$9       .dwtag  DW_TAG_base_type
    2037                            .dwattr $C$DW$T$9, DW_AT_encoding(DW_ATE_unsigned)
    2038                            .dwattr $C$DW$T$9, DW_AT_name("unsigned short")
    2039                            .dwattr $C$DW$T$9, DW_AT_byte_size(0x02)
    2040                    $C$DW$T$57      .dwtag  DW_TAG_typedef, DW_AT_name("_Wchart")
    2041                            .dwattr $C$DW$T$57, DW_AT_type(*$C$DW$T$9)
    2042                            .dwattr $C$DW$T$57, DW_AT_language(DW_LANG_C)
    2043                            .dwattr $C$DW$T$57, DW_AT_decl_file("C:/ti6/ccsv6/tools/compiler/arm_5.1.6/include/yvals.h")
    2044                            .dwattr $C$DW$T$57, DW_AT_decl_line(0x1fe)
    2045                            .dwattr $C$DW$T$57, DW_AT_decl_column(0x21)
    2046                    $C$DW$T$58      .dwtag  DW_TAG_typedef, DW_AT_name("_Wintt")
    2047                            .dwattr $C$DW$T$58, DW_AT_type(*$C$DW$T$9)
    2048                            .dwattr $C$DW$T$58, DW_AT_language(DW_LANG_C)
    2049                            .dwattr $C$DW$T$58, DW_AT_decl_file("C:/ti6/ccsv6/tools/compiler/arm_5.1.6/include/yvals.h")
    2050                            .dwattr $C$DW$T$58, DW_AT_decl_line(0x1ff)
    2051                            .dwattr $C$DW$T$58, DW_AT_decl_column(0x21)
    2052                    
    2053                    $C$DW$T$19      .dwtag  DW_TAG_array_type
    2054                            .dwattr $C$DW$T$19, DW_AT_type(*$C$DW$T$9)
    2055                            .dwattr $C$DW$T$19, DW_AT_language(DW_LANG_C)
    2056                            .dwattr $C$DW$T$19, DW_AT_byte_size(0x10)
    2057                    $C$DW$95        .dwtag  DW_TAG_subrange_type
    2058                            .dwattr $C$DW$95, DW_AT_upper_bound(0x07)
    2059                            .dwendtag $C$DW$T$19
    2060                    
    2061                    $C$DW$T$59      .dwtag  DW_TAG_typedef, DW_AT_name("uint16_t")
    2062                            .dwattr $C$DW$T$59, DW_AT_type(*$C$DW$T$9)
    2063                            .dwattr $C$DW$T$59, DW_AT_language(DW_LANG_C)
    2064                            .dwattr $C$DW$T$59, DW_AT_decl_file("C:/ti6/ccsv6/tools/compiler/arm_5.1.6/include/stdint.h")
    2065                            .dwattr $C$DW$T$59, DW_AT_decl_line(0x2d)
    2066                            .dwattr $C$DW$T$59, DW_AT_decl_column(0x1c)
    2067                    $C$DW$T$60      .dwtag  DW_TAG_typedef, DW_AT_name("uint_least16_t")
    2068                            .dwattr $C$DW$T$60, DW_AT_type(*$C$DW$T$59)
    2069                            .dwattr $C$DW$T$60, DW_AT_language(DW_LANG_C)
    2070                            .dwattr $C$DW$T$60, DW_AT_decl_file("C:/ti6/ccsv6/tools/compiler/arm_5.1.6/include/stdint.h")
    2071                            .dwattr $C$DW$T$60, DW_AT_decl_line(0x3b)
    2072                            .dwattr $C$DW$T$60, DW_AT_decl_column(0x16)
    2073                    $C$DW$T$10      .dwtag  DW_TAG_base_type
    2074                            .dwattr $C$DW$T$10, DW_AT_encoding(DW_ATE_signed)
    2075                            .dwattr $C$DW$T$10, DW_AT_name("int")
    2076                            .dwattr $C$DW$T$10, DW_AT_byte_size(0x04)
    2077                    $C$DW$T$61      .dwtag  DW_TAG_typedef, DW_AT_name("_Ptrdifft")
TI ARM Assembler PC v5.1.6 Wed Feb 10 23:08:25 2016

Tools Copyright (c) 1996-2014 Texas Instruments Incorporated
gyro_init.asm                                                        PAGE   41

    2078                            .dwattr $C$DW$T$61, DW_AT_type(*$C$DW$T$10)
    2079                            .dwattr $C$DW$T$61, DW_AT_language(DW_LANG_C)
    2080                            .dwattr $C$DW$T$61, DW_AT_decl_file("C:/ti6/ccsv6/tools/compiler/arm_5.1.6/include/yvals.h")
    2081                            .dwattr $C$DW$T$61, DW_AT_decl_line(0xa6)
    2082                            .dwattr $C$DW$T$61, DW_AT_decl_column(0x1e)
    2083                    $C$DW$T$62      .dwtag  DW_TAG_volatile_type
    2084                            .dwattr $C$DW$T$62, DW_AT_type(*$C$DW$T$10)
    2085                    $C$DW$T$63      .dwtag  DW_TAG_typedef, DW_AT_name("int32_t")
    2086                            .dwattr $C$DW$T$63, DW_AT_type(*$C$DW$T$10)
    2087                            .dwattr $C$DW$T$63, DW_AT_language(DW_LANG_C)
    2088                            .dwattr $C$DW$T$63, DW_AT_decl_file("C:/ti6/ccsv6/tools/compiler/arm_5.1.6/include/stdint.h")
    2089                            .dwattr $C$DW$T$63, DW_AT_decl_line(0x2e)
    2090                            .dwattr $C$DW$T$63, DW_AT_decl_column(0x1d)
    2091                    $C$DW$T$64      .dwtag  DW_TAG_typedef, DW_AT_name("int_fast16_t")
    2092                            .dwattr $C$DW$T$64, DW_AT_type(*$C$DW$T$63)
    2093                            .dwattr $C$DW$T$64, DW_AT_language(DW_LANG_C)
    2094                            .dwattr $C$DW$T$64, DW_AT_decl_file("C:/ti6/ccsv6/tools/compiler/arm_5.1.6/include/stdint.h")
    2095                            .dwattr $C$DW$T$64, DW_AT_decl_line(0x47)
    2096                            .dwattr $C$DW$T$64, DW_AT_decl_column(0x17)
    2097                    $C$DW$T$65      .dwtag  DW_TAG_typedef, DW_AT_name("int_fast32_t")
    2098                            .dwattr $C$DW$T$65, DW_AT_type(*$C$DW$T$63)
    2099                            .dwattr $C$DW$T$65, DW_AT_language(DW_LANG_C)
    2100                            .dwattr $C$DW$T$65, DW_AT_decl_file("C:/ti6/ccsv6/tools/compiler/arm_5.1.6/include/stdint.h")
    2101                            .dwattr $C$DW$T$65, DW_AT_decl_line(0x4a)
    2102                            .dwattr $C$DW$T$65, DW_AT_decl_column(0x17)
    2103                    $C$DW$T$66      .dwtag  DW_TAG_typedef, DW_AT_name("int_fast8_t")
    2104                            .dwattr $C$DW$T$66, DW_AT_type(*$C$DW$T$63)
    2105                            .dwattr $C$DW$T$66, DW_AT_language(DW_LANG_C)
    2106                            .dwattr $C$DW$T$66, DW_AT_decl_file("C:/ti6/ccsv6/tools/compiler/arm_5.1.6/include/stdint.h")
    2107                            .dwattr $C$DW$T$66, DW_AT_decl_line(0x45)
    2108                            .dwattr $C$DW$T$66, DW_AT_decl_column(0x17)
    2109                    $C$DW$T$67      .dwtag  DW_TAG_typedef, DW_AT_name("int_least32_t")
    2110                            .dwattr $C$DW$T$67, DW_AT_type(*$C$DW$T$63)
    2111                            .dwattr $C$DW$T$67, DW_AT_language(DW_LANG_C)
    2112                            .dwattr $C$DW$T$67, DW_AT_decl_file("C:/ti6/ccsv6/tools/compiler/arm_5.1.6/include/stdint.h")
    2113                            .dwattr $C$DW$T$67, DW_AT_decl_line(0x3c)
    2114                            .dwattr $C$DW$T$67, DW_AT_decl_column(0x17)
    2115                    $C$DW$T$68      .dwtag  DW_TAG_typedef, DW_AT_name("intptr_t")
    2116                            .dwattr $C$DW$T$68, DW_AT_type(*$C$DW$T$10)
    2117                            .dwattr $C$DW$T$68, DW_AT_language(DW_LANG_C)
    2118                            .dwattr $C$DW$T$68, DW_AT_decl_file("C:/ti6/ccsv6/tools/compiler/arm_5.1.6/include/stdint.h")
    2119                            .dwattr $C$DW$T$68, DW_AT_decl_line(0x52)
    2120                            .dwattr $C$DW$T$68, DW_AT_decl_column(0x1a)
    2121                    $C$DW$T$11      .dwtag  DW_TAG_base_type
    2122                            .dwattr $C$DW$T$11, DW_AT_encoding(DW_ATE_unsigned)
    2123                            .dwattr $C$DW$T$11, DW_AT_name("unsigned int")
    2124                            .dwattr $C$DW$T$11, DW_AT_byte_size(0x04)
    2125                    $C$DW$T$69      .dwtag  DW_TAG_typedef, DW_AT_name("_Sizet")
    2126                            .dwattr $C$DW$T$69, DW_AT_type(*$C$DW$T$11)
    2127                            .dwattr $C$DW$T$69, DW_AT_language(DW_LANG_C)
    2128                            .dwattr $C$DW$T$69, DW_AT_decl_file("C:/ti6/ccsv6/tools/compiler/arm_5.1.6/include/yvals.h")
    2129                            .dwattr $C$DW$T$69, DW_AT_decl_line(0xac)
    2130                            .dwattr $C$DW$T$69, DW_AT_decl_column(0x1a)
    2131                    $C$DW$T$36      .dwtag  DW_TAG_typedef, DW_AT_name("uint32_t")
    2132                            .dwattr $C$DW$T$36, DW_AT_type(*$C$DW$T$11)
TI ARM Assembler PC v5.1.6 Wed Feb 10 23:08:25 2016

Tools Copyright (c) 1996-2014 Texas Instruments Incorporated
gyro_init.asm                                                        PAGE   42

    2133                            .dwattr $C$DW$T$36, DW_AT_language(DW_LANG_C)
    2134                            .dwattr $C$DW$T$36, DW_AT_decl_file("C:/ti6/ccsv6/tools/compiler/arm_5.1.6/include/stdint.h")
    2135                            .dwattr $C$DW$T$36, DW_AT_decl_line(0x2f)
    2136                            .dwattr $C$DW$T$36, DW_AT_decl_column(0x1c)
    2137                    $C$DW$T$75      .dwtag  DW_TAG_volatile_type
    2138                            .dwattr $C$DW$T$75, DW_AT_type(*$C$DW$T$36)
    2139                    $C$DW$96        .dwtag  DW_TAG_const_type
    2140                            .dwattr $C$DW$96, DW_AT_type(*$C$DW$T$36)
    2141                    $C$DW$T$77      .dwtag  DW_TAG_volatile_type
    2142                            .dwattr $C$DW$T$77, DW_AT_type(*$C$DW$96)
    2143                    
    2144                    $C$DW$T$78      .dwtag  DW_TAG_array_type
    2145                            .dwattr $C$DW$T$78, DW_AT_type(*$C$DW$T$77)
    2146                            .dwattr $C$DW$T$78, DW_AT_language(DW_LANG_C)
    2147                            .dwattr $C$DW$T$78, DW_AT_byte_size(0x0c)
    2148                    $C$DW$97        .dwtag  DW_TAG_subrange_type
    2149                            .dwattr $C$DW$97, DW_AT_upper_bound(0x02)
    2150                            .dwendtag $C$DW$T$78
    2151                    
    2152                    $C$DW$T$80      .dwtag  DW_TAG_typedef, DW_AT_name("uint_fast16_t")
    2153                            .dwattr $C$DW$T$80, DW_AT_type(*$C$DW$T$36)
    2154                            .dwattr $C$DW$T$80, DW_AT_language(DW_LANG_C)
    2155                            .dwattr $C$DW$T$80, DW_AT_decl_file("C:/ti6/ccsv6/tools/compiler/arm_5.1.6/include/stdint.h")
    2156                            .dwattr $C$DW$T$80, DW_AT_decl_line(0x48)
    2157                            .dwattr $C$DW$T$80, DW_AT_decl_column(0x16)
    2158                    $C$DW$T$81      .dwtag  DW_TAG_typedef, DW_AT_name("uint_fast32_t")
    2159                            .dwattr $C$DW$T$81, DW_AT_type(*$C$DW$T$36)
    2160                            .dwattr $C$DW$T$81, DW_AT_language(DW_LANG_C)
    2161                            .dwattr $C$DW$T$81, DW_AT_decl_file("C:/ti6/ccsv6/tools/compiler/arm_5.1.6/include/stdint.h")
    2162                            .dwattr $C$DW$T$81, DW_AT_decl_line(0x4b)
    2163                            .dwattr $C$DW$T$81, DW_AT_decl_column(0x16)
    2164                    $C$DW$T$82      .dwtag  DW_TAG_typedef, DW_AT_name("uint_fast8_t")
    2165                            .dwattr $C$DW$T$82, DW_AT_type(*$C$DW$T$36)
    2166                            .dwattr $C$DW$T$82, DW_AT_language(DW_LANG_C)
    2167                            .dwattr $C$DW$T$82, DW_AT_decl_file("C:/ti6/ccsv6/tools/compiler/arm_5.1.6/include/stdint.h")
    2168                            .dwattr $C$DW$T$82, DW_AT_decl_line(0x46)
    2169                            .dwattr $C$DW$T$82, DW_AT_decl_column(0x16)
    2170                    $C$DW$T$83      .dwtag  DW_TAG_typedef, DW_AT_name("uint_least32_t")
    2171                            .dwattr $C$DW$T$83, DW_AT_type(*$C$DW$T$36)
    2172                            .dwattr $C$DW$T$83, DW_AT_language(DW_LANG_C)
    2173                            .dwattr $C$DW$T$83, DW_AT_decl_file("C:/ti6/ccsv6/tools/compiler/arm_5.1.6/include/stdint.h")
    2174                            .dwattr $C$DW$T$83, DW_AT_decl_line(0x3d)
    2175                            .dwattr $C$DW$T$83, DW_AT_decl_column(0x16)
    2176                    $C$DW$T$84      .dwtag  DW_TAG_typedef, DW_AT_name("uintptr_t")
    2177                            .dwattr $C$DW$T$84, DW_AT_type(*$C$DW$T$11)
    2178                            .dwattr $C$DW$T$84, DW_AT_language(DW_LANG_C)
    2179                            .dwattr $C$DW$T$84, DW_AT_decl_file("C:/ti6/ccsv6/tools/compiler/arm_5.1.6/include/stdint.h")
    2180                            .dwattr $C$DW$T$84, DW_AT_decl_line(0x53)
    2181                            .dwattr $C$DW$T$84, DW_AT_decl_column(0x1a)
    2182                    $C$DW$T$12      .dwtag  DW_TAG_base_type
    2183                            .dwattr $C$DW$T$12, DW_AT_encoding(DW_ATE_signed)
    2184                            .dwattr $C$DW$T$12, DW_AT_name("long")
    2185                            .dwattr $C$DW$T$12, DW_AT_byte_size(0x04)
    2186                    $C$DW$T$85      .dwtag  DW_TAG_typedef, DW_AT_name("_Int32t")
    2187                            .dwattr $C$DW$T$85, DW_AT_type(*$C$DW$T$12)
TI ARM Assembler PC v5.1.6 Wed Feb 10 23:08:25 2016

Tools Copyright (c) 1996-2014 Texas Instruments Incorporated
gyro_init.asm                                                        PAGE   43

    2188                            .dwattr $C$DW$T$85, DW_AT_language(DW_LANG_C)
    2189                            .dwattr $C$DW$T$85, DW_AT_decl_file("C:/ti6/ccsv6/tools/compiler/arm_5.1.6/include/yvals.h")
    2190                            .dwattr $C$DW$T$85, DW_AT_decl_line(0xa2)
    2191                            .dwattr $C$DW$T$85, DW_AT_decl_column(0x0e)
    2192                    $C$DW$T$13      .dwtag  DW_TAG_base_type
    2193                            .dwattr $C$DW$T$13, DW_AT_encoding(DW_ATE_unsigned)
    2194                            .dwattr $C$DW$T$13, DW_AT_name("unsigned long")
    2195                            .dwattr $C$DW$T$13, DW_AT_byte_size(0x04)
    2196                    $C$DW$T$86      .dwtag  DW_TAG_typedef, DW_AT_name("_Uint32t")
    2197                            .dwattr $C$DW$T$86, DW_AT_type(*$C$DW$T$13)
    2198                            .dwattr $C$DW$T$86, DW_AT_language(DW_LANG_C)
    2199                            .dwattr $C$DW$T$86, DW_AT_decl_file("C:/ti6/ccsv6/tools/compiler/arm_5.1.6/include/yvals.h")
    2200                            .dwattr $C$DW$T$86, DW_AT_decl_line(0xa3)
    2201                            .dwattr $C$DW$T$86, DW_AT_decl_column(0x17)
    2202                    $C$DW$T$14      .dwtag  DW_TAG_base_type
    2203                            .dwattr $C$DW$T$14, DW_AT_encoding(DW_ATE_signed)
    2204                            .dwattr $C$DW$T$14, DW_AT_name("long long")
    2205                            .dwattr $C$DW$T$14, DW_AT_byte_size(0x08)
    2206                    $C$DW$T$87      .dwtag  DW_TAG_typedef, DW_AT_name("_Longlong")
    2207                            .dwattr $C$DW$T$87, DW_AT_type(*$C$DW$T$14)
    2208                            .dwattr $C$DW$T$87, DW_AT_language(DW_LANG_C)
    2209                            .dwattr $C$DW$T$87, DW_AT_decl_file("C:/ti6/ccsv6/tools/compiler/arm_5.1.6/include/yvals.h")
    2210                            .dwattr $C$DW$T$87, DW_AT_decl_line(0x1ce)
    2211                            .dwattr $C$DW$T$87, DW_AT_decl_column(0x13)
    2212                    $C$DW$T$88      .dwtag  DW_TAG_typedef, DW_AT_name("int64_t")
    2213                            .dwattr $C$DW$T$88, DW_AT_type(*$C$DW$T$14)
    2214                            .dwattr $C$DW$T$88, DW_AT_language(DW_LANG_C)
    2215                            .dwattr $C$DW$T$88, DW_AT_decl_file("C:/ti6/ccsv6/tools/compiler/arm_5.1.6/include/stdint.h")
    2216                            .dwattr $C$DW$T$88, DW_AT_decl_line(0x32)
    2217                            .dwattr $C$DW$T$88, DW_AT_decl_column(0x21)
    2218                    $C$DW$T$89      .dwtag  DW_TAG_typedef, DW_AT_name("int_fast64_t")
    2219                            .dwattr $C$DW$T$89, DW_AT_type(*$C$DW$T$88)
    2220                            .dwattr $C$DW$T$89, DW_AT_language(DW_LANG_C)
    2221                            .dwattr $C$DW$T$89, DW_AT_decl_file("C:/ti6/ccsv6/tools/compiler/arm_5.1.6/include/stdint.h")
    2222                            .dwattr $C$DW$T$89, DW_AT_decl_line(0x4e)
    2223                            .dwattr $C$DW$T$89, DW_AT_decl_column(0x17)
    2224                    $C$DW$T$90      .dwtag  DW_TAG_typedef, DW_AT_name("int_least64_t")
    2225                            .dwattr $C$DW$T$90, DW_AT_type(*$C$DW$T$88)
    2226                            .dwattr $C$DW$T$90, DW_AT_language(DW_LANG_C)
    2227                            .dwattr $C$DW$T$90, DW_AT_decl_file("C:/ti6/ccsv6/tools/compiler/arm_5.1.6/include/stdint.h")
    2228                            .dwattr $C$DW$T$90, DW_AT_decl_line(0x40)
    2229                            .dwattr $C$DW$T$90, DW_AT_decl_column(0x17)
    2230                    $C$DW$T$91      .dwtag  DW_TAG_typedef, DW_AT_name("intmax_t")
    2231                            .dwattr $C$DW$T$91, DW_AT_type(*$C$DW$T$14)
    2232                            .dwattr $C$DW$T$91, DW_AT_language(DW_LANG_C)
    2233                            .dwattr $C$DW$T$91, DW_AT_decl_file("C:/ti6/ccsv6/tools/compiler/arm_5.1.6/include/stdint.h")
    2234                            .dwattr $C$DW$T$91, DW_AT_decl_line(0x56)
    2235                            .dwattr $C$DW$T$91, DW_AT_decl_column(0x20)
    2236                    $C$DW$T$15      .dwtag  DW_TAG_base_type
    2237                            .dwattr $C$DW$T$15, DW_AT_encoding(DW_ATE_unsigned)
    2238                            .dwattr $C$DW$T$15, DW_AT_name("unsigned long long")
    2239                            .dwattr $C$DW$T$15, DW_AT_byte_size(0x08)
    2240                    $C$DW$T$92      .dwtag  DW_TAG_typedef, DW_AT_name("_ULonglong")
    2241                            .dwattr $C$DW$T$92, DW_AT_type(*$C$DW$T$15)
    2242                            .dwattr $C$DW$T$92, DW_AT_language(DW_LANG_C)
TI ARM Assembler PC v5.1.6 Wed Feb 10 23:08:25 2016

Tools Copyright (c) 1996-2014 Texas Instruments Incorporated
gyro_init.asm                                                        PAGE   44

    2243                            .dwattr $C$DW$T$92, DW_AT_decl_file("C:/ti6/ccsv6/tools/compiler/arm_5.1.6/include/yvals.h")
    2244                            .dwattr $C$DW$T$92, DW_AT_decl_line(0x1cf)
    2245                            .dwattr $C$DW$T$92, DW_AT_decl_column(0x14)
    2246                    $C$DW$T$93      .dwtag  DW_TAG_typedef, DW_AT_name("uint64_t")
    2247                            .dwattr $C$DW$T$93, DW_AT_type(*$C$DW$T$15)
    2248                            .dwattr $C$DW$T$93, DW_AT_language(DW_LANG_C)
    2249                            .dwattr $C$DW$T$93, DW_AT_decl_file("C:/ti6/ccsv6/tools/compiler/arm_5.1.6/include/stdint.h")
    2250                            .dwattr $C$DW$T$93, DW_AT_decl_line(0x33)
    2251                            .dwattr $C$DW$T$93, DW_AT_decl_column(0x20)
    2252                    $C$DW$T$94      .dwtag  DW_TAG_typedef, DW_AT_name("uint_fast64_t")
    2253                            .dwattr $C$DW$T$94, DW_AT_type(*$C$DW$T$93)
    2254                            .dwattr $C$DW$T$94, DW_AT_language(DW_LANG_C)
    2255                            .dwattr $C$DW$T$94, DW_AT_decl_file("C:/ti6/ccsv6/tools/compiler/arm_5.1.6/include/stdint.h")
    2256                            .dwattr $C$DW$T$94, DW_AT_decl_line(0x4f)
    2257                            .dwattr $C$DW$T$94, DW_AT_decl_column(0x16)
    2258                    $C$DW$T$95      .dwtag  DW_TAG_typedef, DW_AT_name("uint_least64_t")
    2259                            .dwattr $C$DW$T$95, DW_AT_type(*$C$DW$T$93)
    2260                            .dwattr $C$DW$T$95, DW_AT_language(DW_LANG_C)
    2261                            .dwattr $C$DW$T$95, DW_AT_decl_file("C:/ti6/ccsv6/tools/compiler/arm_5.1.6/include/stdint.h")
    2262                            .dwattr $C$DW$T$95, DW_AT_decl_line(0x41)
    2263                            .dwattr $C$DW$T$95, DW_AT_decl_column(0x16)
    2264                    $C$DW$T$96      .dwtag  DW_TAG_typedef, DW_AT_name("uintmax_t")
    2265                            .dwattr $C$DW$T$96, DW_AT_type(*$C$DW$T$15)
    2266                            .dwattr $C$DW$T$96, DW_AT_language(DW_LANG_C)
    2267                            .dwattr $C$DW$T$96, DW_AT_decl_file("C:/ti6/ccsv6/tools/compiler/arm_5.1.6/include/stdint.h")
    2268                            .dwattr $C$DW$T$96, DW_AT_decl_line(0x57)
    2269                            .dwattr $C$DW$T$96, DW_AT_decl_column(0x20)
    2270                    $C$DW$T$16      .dwtag  DW_TAG_base_type
    2271                            .dwattr $C$DW$T$16, DW_AT_encoding(DW_ATE_float)
    2272                            .dwattr $C$DW$T$16, DW_AT_name("float")
    2273                            .dwattr $C$DW$T$16, DW_AT_byte_size(0x04)
    2274                    $C$DW$T$97      .dwtag  DW_TAG_typedef, DW_AT_name("float_t")
    2275                            .dwattr $C$DW$T$97, DW_AT_type(*$C$DW$T$16)
    2276                            .dwattr $C$DW$T$97, DW_AT_language(DW_LANG_C)
    2277                            .dwattr $C$DW$T$97, DW_AT_decl_file("C:/ti6/ccsv6/tools/compiler/arm_5.1.6/include/math.h")
    2278                            .dwattr $C$DW$T$97, DW_AT_decl_line(0x62)
    2279                            .dwattr $C$DW$T$97, DW_AT_decl_column(0x0f)
    2280                    $C$DW$T$17      .dwtag  DW_TAG_base_type
    2281                            .dwattr $C$DW$T$17, DW_AT_encoding(DW_ATE_float)
    2282                            .dwattr $C$DW$T$17, DW_AT_name("double")
    2283                            .dwattr $C$DW$T$17, DW_AT_byte_size(0x08)
    2284                    $C$DW$T$98      .dwtag  DW_TAG_typedef, DW_AT_name("double_t")
    2285                            .dwattr $C$DW$T$98, DW_AT_type(*$C$DW$T$17)
    2286                            .dwattr $C$DW$T$98, DW_AT_language(DW_LANG_C)
    2287                            .dwattr $C$DW$T$98, DW_AT_decl_file("C:/ti6/ccsv6/tools/compiler/arm_5.1.6/include/math.h")
    2288                            .dwattr $C$DW$T$98, DW_AT_decl_line(0x63)
    2289                            .dwattr $C$DW$T$98, DW_AT_decl_column(0x10)
    2290                    $C$DW$T$18      .dwtag  DW_TAG_base_type
    2291                            .dwattr $C$DW$T$18, DW_AT_encoding(DW_ATE_float)
    2292                            .dwattr $C$DW$T$18, DW_AT_name("long double")
    2293                            .dwattr $C$DW$T$18, DW_AT_byte_size(0x08)
    2294                    $C$DW$T$99      .dwtag  DW_TAG_typedef, DW_AT_name("_Sysch_t")
    2295                            .dwattr $C$DW$T$99, DW_AT_type(*$C$DW$T$6)
    2296                            .dwattr $C$DW$T$99, DW_AT_language(DW_LANG_C)
    2297                            .dwattr $C$DW$T$99, DW_AT_decl_file("C:/ti6/ccsv6/tools/compiler/arm_5.1.6/include/yvals.h")
TI ARM Assembler PC v5.1.6 Wed Feb 10 23:08:25 2016

Tools Copyright (c) 1996-2014 Texas Instruments Incorporated
gyro_init.asm                                                        PAGE   45

    2298                            .dwattr $C$DW$T$99, DW_AT_decl_line(0x23a)
    2299                            .dwattr $C$DW$T$99, DW_AT_decl_column(0x0e)
    2300                    $C$DW$T$26      .dwtag  DW_TAG_const_type
    2301                            .dwattr $C$DW$T$26, DW_AT_type(*$C$DW$T$6)
    2302                    $C$DW$T$27      .dwtag  DW_TAG_pointer_type
    2303                            .dwattr $C$DW$T$27, DW_AT_type(*$C$DW$T$26)
    2304                            .dwattr $C$DW$T$27, DW_AT_address_class(0x20)
    2305                    $C$DW$T$110     .dwtag  DW_TAG_pointer_type
    2306                            .dwattr $C$DW$T$110, DW_AT_type(*$C$DW$T$6)
    2307                            .dwattr $C$DW$T$110, DW_AT_address_class(0x20)
    2308                    $C$DW$T$111     .dwtag  DW_TAG_typedef, DW_AT_name("__builtin_va_list")
    2309                            .dwattr $C$DW$T$111, DW_AT_type(*$C$DW$T$110)
    2310                            .dwattr $C$DW$T$111, DW_AT_language(DW_LANG_C)
    2311                            .dwattr $C$DW$T$111, DW_AT_decl_file("../gyro_init.c")
    2312                            .dwattr $C$DW$T$111, DW_AT_decl_line(0xe2)
    2313                            .dwattr $C$DW$T$111, DW_AT_decl_column(0x01)
    2314                    
    2315                    $C$DW$T$21      .dwtag  DW_TAG_structure_type
    2316                            .dwattr $C$DW$T$21, DW_AT_name("__va_list")
    2317                            .dwattr $C$DW$T$21, DW_AT_byte_size(0x04)
    2318                    $C$DW$98        .dwtag  DW_TAG_member
    2319                            .dwattr $C$DW$98, DW_AT_type(*$C$DW$T$3)
    2320                            .dwattr $C$DW$98, DW_AT_name("__ap")
    2321                            .dwattr $C$DW$98, DW_AT_TI_symbol_name("__ap")
    2322                            .dwattr $C$DW$98, DW_AT_data_member_location[DW_OP_plus_uconst 0x0]
    2323                            .dwattr $C$DW$98, DW_AT_accessibility(DW_ACCESS_public)
    2324                            .dwattr $C$DW$98, DW_AT_decl_file("C:/ti6/ccsv6/tools/compiler/arm_5.1.6/include/stdarg.h")
    2325                            .dwattr $C$DW$98, DW_AT_decl_line(0x32)
    2326                            .dwattr $C$DW$98, DW_AT_decl_column(0x0c)
    2327                            .dwendtag $C$DW$T$21
    2328                    
    2329                            .dwattr $C$DW$T$21, DW_AT_decl_file("C:/ti6/ccsv6/tools/compiler/arm_5.1.6/include/stdarg.h")
    2330                            .dwattr $C$DW$T$21, DW_AT_decl_line(0x31)
    2331                            .dwattr $C$DW$T$21, DW_AT_decl_column(0x10)
    2332                    $C$DW$T$112     .dwtag  DW_TAG_typedef, DW_AT_name("va_list")
    2333                            .dwattr $C$DW$T$112, DW_AT_type(*$C$DW$T$21)
    2334                            .dwattr $C$DW$T$112, DW_AT_language(DW_LANG_C)
    2335                            .dwattr $C$DW$T$112, DW_AT_decl_file("C:/ti6/ccsv6/tools/compiler/arm_5.1.6/include/stdarg.h")
    2336                            .dwattr $C$DW$T$112, DW_AT_decl_line(0x33)
    2337                            .dwattr $C$DW$T$112, DW_AT_decl_column(0x03)
    2338                    $C$DW$T$113     .dwtag  DW_TAG_typedef, DW_AT_name("_Va_list")
    2339                            .dwattr $C$DW$T$113, DW_AT_type(*$C$DW$T$112)
    2340                            .dwattr $C$DW$T$113, DW_AT_language(DW_LANG_C)
    2341                            .dwattr $C$DW$T$113, DW_AT_decl_file("C:/ti6/ccsv6/tools/compiler/arm_5.1.6/include/yvals.h")
    2342                            .dwattr $C$DW$T$113, DW_AT_decl_line(0x218)
    2343                            .dwattr $C$DW$T$113, DW_AT_decl_column(0x17)
    2344                    
    2345                    $C$DW$T$24      .dwtag  DW_TAG_structure_type
    2346                            .dwattr $C$DW$T$24, DW_AT_name("_gyro")
    2347                            .dwattr $C$DW$T$24, DW_AT_byte_size(0x40)
    2348                    $C$DW$99        .dwtag  DW_TAG_member
    2349                            .dwattr $C$DW$99, DW_AT_type(*$C$DW$T$6)
    2350                            .dwattr $C$DW$99, DW_AT_name("IsPresent")
    2351                            .dwattr $C$DW$99, DW_AT_TI_symbol_name("IsPresent")
    2352                            .dwattr $C$DW$99, DW_AT_data_member_location[DW_OP_plus_uconst 0x0]
TI ARM Assembler PC v5.1.6 Wed Feb 10 23:08:25 2016

Tools Copyright (c) 1996-2014 Texas Instruments Incorporated
gyro_init.asm                                                        PAGE   46

    2353                            .dwattr $C$DW$99, DW_AT_accessibility(DW_ACCESS_public)
    2354                            .dwattr $C$DW$99, DW_AT_decl_file("..\gyro_f.h")
    2355                            .dwattr $C$DW$99, DW_AT_decl_line(0x11)
    2356                            .dwattr $C$DW$99, DW_AT_decl_column(0x07)
    2357                    $C$DW$100       .dwtag  DW_TAG_member
    2358                            .dwattr $C$DW$100, DW_AT_type(*$C$DW$T$6)
    2359                            .dwattr $C$DW$100, DW_AT_name("IsOn")
    2360                            .dwattr $C$DW$100, DW_AT_TI_symbol_name("IsOn")
    2361                            .dwattr $C$DW$100, DW_AT_data_member_location[DW_OP_plus_uconst 0x1]
    2362                            .dwattr $C$DW$100, DW_AT_accessibility(DW_ACCESS_public)
    2363                            .dwattr $C$DW$100, DW_AT_decl_file("..\gyro_f.h")
    2364                            .dwattr $C$DW$100, DW_AT_decl_line(0x12)
    2365                            .dwattr $C$DW$100, DW_AT_decl_column(0x07)
    2366                    $C$DW$101       .dwtag  DW_TAG_member
    2367                            .dwattr $C$DW$101, DW_AT_type(*$C$DW$T$23)
    2368                            .dwattr $C$DW$101, DW_AT_name("x0")
    2369                            .dwattr $C$DW$101, DW_AT_TI_symbol_name("x0")
    2370                            .dwattr $C$DW$101, DW_AT_data_member_location[DW_OP_plus_uconst 0x2]
    2371                            .dwattr $C$DW$101, DW_AT_accessibility(DW_ACCESS_public)
    2372                            .dwattr $C$DW$101, DW_AT_decl_file("..\gyro_f.h")
    2373                            .dwattr $C$DW$101, DW_AT_decl_line(0x14)
    2374                            .dwattr $C$DW$101, DW_AT_decl_column(0x0a)
    2375                    $C$DW$102       .dwtag  DW_TAG_member
    2376                            .dwattr $C$DW$102, DW_AT_type(*$C$DW$T$23)
    2377                            .dwattr $C$DW$102, DW_AT_name("y0")
    2378                            .dwattr $C$DW$102, DW_AT_TI_symbol_name("y0")
    2379                            .dwattr $C$DW$102, DW_AT_data_member_location[DW_OP_plus_uconst 0x4]
    2380                            .dwattr $C$DW$102, DW_AT_accessibility(DW_ACCESS_public)
    2381                            .dwattr $C$DW$102, DW_AT_decl_file("..\gyro_f.h")
    2382                            .dwattr $C$DW$102, DW_AT_decl_line(0x14)
    2383                            .dwattr $C$DW$102, DW_AT_decl_column(0x0e)
    2384                    $C$DW$103       .dwtag  DW_TAG_member
    2385                            .dwattr $C$DW$103, DW_AT_type(*$C$DW$T$23)
    2386                            .dwattr $C$DW$103, DW_AT_name("z0")
    2387                            .dwattr $C$DW$103, DW_AT_TI_symbol_name("z0")
    2388                            .dwattr $C$DW$103, DW_AT_data_member_location[DW_OP_plus_uconst 0x6]
    2389                            .dwattr $C$DW$103, DW_AT_accessibility(DW_ACCESS_public)
    2390                            .dwattr $C$DW$103, DW_AT_decl_file("..\gyro_f.h")
    2391                            .dwattr $C$DW$103, DW_AT_decl_line(0x14)
    2392                            .dwattr $C$DW$103, DW_AT_decl_column(0x12)
    2393                    $C$DW$104       .dwtag  DW_TAG_member
    2394                            .dwattr $C$DW$104, DW_AT_type(*$C$DW$T$6)
    2395                            .dwattr $C$DW$104, DW_AT_name("asseOn")
    2396                            .dwattr $C$DW$104, DW_AT_TI_symbol_name("asseOn")
    2397                            .dwattr $C$DW$104, DW_AT_data_member_location[DW_OP_plus_uconst 0x8]
    2398                            .dwattr $C$DW$104, DW_AT_accessibility(DW_ACCESS_public)
    2399                            .dwattr $C$DW$104, DW_AT_decl_file("..\gyro_f.h")
    2400                            .dwattr $C$DW$104, DW_AT_decl_line(0x16)
    2401                            .dwattr $C$DW$104, DW_AT_decl_column(0x07)
    2402                    $C$DW$105       .dwtag  DW_TAG_member
    2403                            .dwattr $C$DW$105, DW_AT_type(*$C$DW$T$23)
    2404                            .dwattr $C$DW$105, DW_AT_name("yaw")
    2405                            .dwattr $C$DW$105, DW_AT_TI_symbol_name("yaw")
    2406                            .dwattr $C$DW$105, DW_AT_data_member_location[DW_OP_plus_uconst 0xa]
    2407                            .dwattr $C$DW$105, DW_AT_accessibility(DW_ACCESS_public)
TI ARM Assembler PC v5.1.6 Wed Feb 10 23:08:25 2016

Tools Copyright (c) 1996-2014 Texas Instruments Incorporated
gyro_init.asm                                                        PAGE   47

    2408                            .dwattr $C$DW$105, DW_AT_decl_file("..\gyro_f.h")
    2409                            .dwattr $C$DW$105, DW_AT_decl_line(0x19)
    2410                            .dwattr $C$DW$105, DW_AT_decl_column(0x0a)
    2411                    $C$DW$106       .dwtag  DW_TAG_member
    2412                            .dwattr $C$DW$106, DW_AT_type(*$C$DW$T$23)
    2413                            .dwattr $C$DW$106, DW_AT_name("roll")
    2414                            .dwattr $C$DW$106, DW_AT_TI_symbol_name("roll")
    2415                            .dwattr $C$DW$106, DW_AT_data_member_location[DW_OP_plus_uconst 0xc]
    2416                            .dwattr $C$DW$106, DW_AT_accessibility(DW_ACCESS_public)
    2417                            .dwattr $C$DW$106, DW_AT_decl_file("..\gyro_f.h")
    2418                            .dwattr $C$DW$106, DW_AT_decl_line(0x1a)
    2419                            .dwattr $C$DW$106, DW_AT_decl_column(0x0a)
    2420                    $C$DW$107       .dwtag  DW_TAG_member
    2421                            .dwattr $C$DW$107, DW_AT_type(*$C$DW$T$23)
    2422                            .dwattr $C$DW$107, DW_AT_name("pitch")
    2423                            .dwattr $C$DW$107, DW_AT_TI_symbol_name("pitch")
    2424                            .dwattr $C$DW$107, DW_AT_data_member_location[DW_OP_plus_uconst 0xe]
    2425                            .dwattr $C$DW$107, DW_AT_accessibility(DW_ACCESS_public)
    2426                            .dwattr $C$DW$107, DW_AT_decl_file("..\gyro_f.h")
    2427                            .dwattr $C$DW$107, DW_AT_decl_line(0x1b)
    2428                            .dwattr $C$DW$107, DW_AT_decl_column(0x0a)
    2429                    $C$DW$108       .dwtag  DW_TAG_member
    2430                            .dwattr $C$DW$108, DW_AT_type(*$C$DW$T$16)
    2431                            .dwattr $C$DW$108, DW_AT_name("yawF")
    2432                            .dwattr $C$DW$108, DW_AT_TI_symbol_name("yawF")
    2433                            .dwattr $C$DW$108, DW_AT_data_member_location[DW_OP_plus_uconst 0x10]
    2434                            .dwattr $C$DW$108, DW_AT_accessibility(DW_ACCESS_public)
    2435                            .dwattr $C$DW$108, DW_AT_decl_file("..\gyro_f.h")
    2436                            .dwattr $C$DW$108, DW_AT_decl_line(0x1e)
    2437                            .dwattr $C$DW$108, DW_AT_decl_column(0x08)
    2438                    $C$DW$109       .dwtag  DW_TAG_member
    2439                            .dwattr $C$DW$109, DW_AT_type(*$C$DW$T$16)
    2440                            .dwattr $C$DW$109, DW_AT_name("rollF")
    2441                            .dwattr $C$DW$109, DW_AT_TI_symbol_name("rollF")
    2442                            .dwattr $C$DW$109, DW_AT_data_member_location[DW_OP_plus_uconst 0x14]
    2443                            .dwattr $C$DW$109, DW_AT_accessibility(DW_ACCESS_public)
    2444                            .dwattr $C$DW$109, DW_AT_decl_file("..\gyro_f.h")
    2445                            .dwattr $C$DW$109, DW_AT_decl_line(0x1f)
    2446                            .dwattr $C$DW$109, DW_AT_decl_column(0x08)
    2447                    $C$DW$110       .dwtag  DW_TAG_member
    2448                            .dwattr $C$DW$110, DW_AT_type(*$C$DW$T$16)
    2449                            .dwattr $C$DW$110, DW_AT_name("pitchF")
    2450                            .dwattr $C$DW$110, DW_AT_TI_symbol_name("pitchF")
    2451                            .dwattr $C$DW$110, DW_AT_data_member_location[DW_OP_plus_uconst 0x18]
    2452                            .dwattr $C$DW$110, DW_AT_accessibility(DW_ACCESS_public)
    2453                            .dwattr $C$DW$110, DW_AT_decl_file("..\gyro_f.h")
    2454                            .dwattr $C$DW$110, DW_AT_decl_line(0x20)
    2455                            .dwattr $C$DW$110, DW_AT_decl_column(0x08)
    2456                    $C$DW$111       .dwtag  DW_TAG_member
    2457                            .dwattr $C$DW$111, DW_AT_type(*$C$DW$T$16)
    2458                            .dwattr $C$DW$111, DW_AT_name("yawP")
    2459                            .dwattr $C$DW$111, DW_AT_TI_symbol_name("yawP")
    2460                            .dwattr $C$DW$111, DW_AT_data_member_location[DW_OP_plus_uconst 0x1c]
    2461                            .dwattr $C$DW$111, DW_AT_accessibility(DW_ACCESS_public)
    2462                            .dwattr $C$DW$111, DW_AT_decl_file("..\gyro_f.h")
TI ARM Assembler PC v5.1.6 Wed Feb 10 23:08:25 2016

Tools Copyright (c) 1996-2014 Texas Instruments Incorporated
gyro_init.asm                                                        PAGE   48

    2463                            .dwattr $C$DW$111, DW_AT_decl_line(0x22)
    2464                            .dwattr $C$DW$111, DW_AT_decl_column(0x08)
    2465                    $C$DW$112       .dwtag  DW_TAG_member
    2466                            .dwattr $C$DW$112, DW_AT_type(*$C$DW$T$16)
    2467                            .dwattr $C$DW$112, DW_AT_name("rollP")
    2468                            .dwattr $C$DW$112, DW_AT_TI_symbol_name("rollP")
    2469                            .dwattr $C$DW$112, DW_AT_data_member_location[DW_OP_plus_uconst 0x20]
    2470                            .dwattr $C$DW$112, DW_AT_accessibility(DW_ACCESS_public)
    2471                            .dwattr $C$DW$112, DW_AT_decl_file("..\gyro_f.h")
    2472                            .dwattr $C$DW$112, DW_AT_decl_line(0x22)
    2473                            .dwattr $C$DW$112, DW_AT_decl_column(0x0e)
    2474                    $C$DW$113       .dwtag  DW_TAG_member
    2475                            .dwattr $C$DW$113, DW_AT_type(*$C$DW$T$16)
    2476                            .dwattr $C$DW$113, DW_AT_name("pitchP")
    2477                            .dwattr $C$DW$113, DW_AT_TI_symbol_name("pitchP")
    2478                            .dwattr $C$DW$113, DW_AT_data_member_location[DW_OP_plus_uconst 0x24]
    2479                            .dwattr $C$DW$113, DW_AT_accessibility(DW_ACCESS_public)
    2480                            .dwattr $C$DW$113, DW_AT_decl_file("..\gyro_f.h")
    2481                            .dwattr $C$DW$113, DW_AT_decl_line(0x22)
    2482                            .dwattr $C$DW$113, DW_AT_decl_column(0x15)
    2483                    $C$DW$114       .dwtag  DW_TAG_member
    2484                            .dwattr $C$DW$114, DW_AT_type(*$C$DW$T$23)
    2485                            .dwattr $C$DW$114, DW_AT_name("gradiSec")
    2486                            .dwattr $C$DW$114, DW_AT_TI_symbol_name("gradiSec")
    2487                            .dwattr $C$DW$114, DW_AT_data_member_location[DW_OP_plus_uconst 0x28]
    2488                            .dwattr $C$DW$114, DW_AT_accessibility(DW_ACCESS_public)
    2489                            .dwattr $C$DW$114, DW_AT_decl_file("..\gyro_f.h")
    2490                            .dwattr $C$DW$114, DW_AT_decl_line(0x24)
    2491                            .dwattr $C$DW$114, DW_AT_decl_column(0x0a)
    2492                    $C$DW$115       .dwtag  DW_TAG_member
    2493                            .dwattr $C$DW$115, DW_AT_type(*$C$DW$T$16)
    2494                            .dwattr $C$DW$115, DW_AT_name("FS")
    2495                            .dwattr $C$DW$115, DW_AT_TI_symbol_name("FS")
    2496                            .dwattr $C$DW$115, DW_AT_data_member_location[DW_OP_plus_uconst 0x2c]
    2497                            .dwattr $C$DW$115, DW_AT_accessibility(DW_ACCESS_public)
    2498                            .dwattr $C$DW$115, DW_AT_decl_file("..\gyro_f.h")
    2499                            .dwattr $C$DW$115, DW_AT_decl_line(0x25)
    2500                            .dwattr $C$DW$115, DW_AT_decl_column(0x08)
    2501                    $C$DW$116       .dwtag  DW_TAG_member
    2502                            .dwattr $C$DW$116, DW_AT_type(*$C$DW$T$16)
    2503                            .dwattr $C$DW$116, DW_AT_name("tick")
    2504                            .dwattr $C$DW$116, DW_AT_TI_symbol_name("tick")
    2505                            .dwattr $C$DW$116, DW_AT_data_member_location[DW_OP_plus_uconst 0x30]
    2506                            .dwattr $C$DW$116, DW_AT_accessibility(DW_ACCESS_public)
    2507                            .dwattr $C$DW$116, DW_AT_decl_file("..\gyro_f.h")
    2508                            .dwattr $C$DW$116, DW_AT_decl_line(0x27)
    2509                            .dwattr $C$DW$116, DW_AT_decl_column(0x08)
    2510                    $C$DW$117       .dwtag  DW_TAG_member
    2511                            .dwattr $C$DW$117, DW_AT_type(*$C$DW$T$16)
    2512                            .dwattr $C$DW$117, DW_AT_name("kz")
    2513                            .dwattr $C$DW$117, DW_AT_TI_symbol_name("kz")
    2514                            .dwattr $C$DW$117, DW_AT_data_member_location[DW_OP_plus_uconst 0x34]
    2515                            .dwattr $C$DW$117, DW_AT_accessibility(DW_ACCESS_public)
    2516                            .dwattr $C$DW$117, DW_AT_decl_file("..\gyro_f.h")
    2517                            .dwattr $C$DW$117, DW_AT_decl_line(0x29)
TI ARM Assembler PC v5.1.6 Wed Feb 10 23:08:25 2016

Tools Copyright (c) 1996-2014 Texas Instruments Incorporated
gyro_init.asm                                                        PAGE   49

    2518                            .dwattr $C$DW$117, DW_AT_decl_column(0x08)
    2519                    $C$DW$118       .dwtag  DW_TAG_member
    2520                            .dwattr $C$DW$118, DW_AT_type(*$C$DW$T$16)
    2521                            .dwattr $C$DW$118, DW_AT_name("ky")
    2522                            .dwattr $C$DW$118, DW_AT_TI_symbol_name("ky")
    2523                            .dwattr $C$DW$118, DW_AT_data_member_location[DW_OP_plus_uconst 0x38]
    2524                            .dwattr $C$DW$118, DW_AT_accessibility(DW_ACCESS_public)
    2525                            .dwattr $C$DW$118, DW_AT_decl_file("..\gyro_f.h")
    2526                            .dwattr $C$DW$118, DW_AT_decl_line(0x29)
    2527                            .dwattr $C$DW$118, DW_AT_decl_column(0x0c)
    2528                    $C$DW$119       .dwtag  DW_TAG_member
    2529                            .dwattr $C$DW$119, DW_AT_type(*$C$DW$T$16)
    2530                            .dwattr $C$DW$119, DW_AT_name("kx")
    2531                            .dwattr $C$DW$119, DW_AT_TI_symbol_name("kx")
    2532                            .dwattr $C$DW$119, DW_AT_data_member_location[DW_OP_plus_uconst 0x3c]
    2533                            .dwattr $C$DW$119, DW_AT_accessibility(DW_ACCESS_public)
    2534                            .dwattr $C$DW$119, DW_AT_decl_file("..\gyro_f.h")
    2535                            .dwattr $C$DW$119, DW_AT_decl_line(0x29)
    2536                            .dwattr $C$DW$119, DW_AT_decl_column(0x10)
    2537                            .dwendtag $C$DW$T$24
    2538                    
    2539                            .dwattr $C$DW$T$24, DW_AT_decl_file("..\gyro_f.h")
    2540                            .dwattr $C$DW$T$24, DW_AT_decl_line(0x10)
    2541                            .dwattr $C$DW$T$24, DW_AT_decl_column(0x10)
    2542                    $C$DW$T$41      .dwtag  DW_TAG_typedef, DW_AT_name("gyro")
    2543                            .dwattr $C$DW$T$41, DW_AT_type(*$C$DW$T$24)
    2544                            .dwattr $C$DW$T$41, DW_AT_language(DW_LANG_C)
    2545                            .dwattr $C$DW$T$41, DW_AT_decl_file("..\gyro_f.h")
    2546                            .dwattr $C$DW$T$41, DW_AT_decl_line(0x2a)
    2547                            .dwattr $C$DW$T$41, DW_AT_decl_column(0x03)
    2548                    $C$DW$T$42      .dwtag  DW_TAG_pointer_type
    2549                            .dwattr $C$DW$T$42, DW_AT_type(*$C$DW$T$41)
    2550                            .dwattr $C$DW$T$42, DW_AT_address_class(0x20)
    2551                            .dwattr $C$DW$CU, DW_AT_language(DW_LANG_C)
    2552                    
    2553                    ;***************************************************************
    2554                    ;* DWARF CIE ENTRIES                                           *
    2555                    ;***************************************************************
    2556                    
    2557                    $C$DW$CIE       .dwcie 14
    2558                            .dwcfi  cfa_register, 13
    2559                            .dwcfi  cfa_offset, 0
    2560                            .dwcfi  undefined, 0
    2561                            .dwcfi  undefined, 1
    2562                            .dwcfi  undefined, 2
    2563                            .dwcfi  undefined, 3
    2564                            .dwcfi  same_value, 4
    2565                            .dwcfi  same_value, 5
    2566                            .dwcfi  same_value, 6
    2567                            .dwcfi  same_value, 7
    2568                            .dwcfi  same_value, 8
    2569                            .dwcfi  same_value, 9
    2570                            .dwcfi  same_value, 10
    2571                            .dwcfi  same_value, 11
    2572                            .dwcfi  undefined, 12
TI ARM Assembler PC v5.1.6 Wed Feb 10 23:08:25 2016

Tools Copyright (c) 1996-2014 Texas Instruments Incorporated
gyro_init.asm                                                        PAGE   50

    2573                            .dwcfi  undefined, 13
    2574                            .dwcfi  undefined, 14
    2575                            .dwcfi  undefined, 14
    2576                            .dwcfi  undefined, 7
    2577                            .dwcfi  undefined, 64
    2578                            .dwcfi  undefined, 65
    2579                            .dwcfi  undefined, 66
    2580                            .dwcfi  undefined, 67
    2581                            .dwcfi  undefined, 68
    2582                            .dwcfi  undefined, 69
    2583                            .dwcfi  undefined, 70
    2584                            .dwcfi  undefined, 71
    2585                            .dwcfi  undefined, 72
    2586                            .dwcfi  undefined, 73
    2587                            .dwcfi  undefined, 74
    2588                            .dwcfi  undefined, 75
    2589                            .dwcfi  undefined, 76
    2590                            .dwcfi  undefined, 77
    2591                            .dwcfi  undefined, 78
    2592                            .dwcfi  undefined, 79
    2593                            .dwcfi  same_value, 80
    2594                            .dwcfi  same_value, 81
    2595                            .dwcfi  same_value, 82
    2596                            .dwcfi  same_value, 83
    2597                            .dwcfi  same_value, 84
    2598                            .dwcfi  same_value, 85
    2599                            .dwcfi  same_value, 86
    2600                            .dwcfi  same_value, 87
    2601                            .dwcfi  same_value, 88
    2602                            .dwcfi  same_value, 89
    2603                            .dwcfi  same_value, 90
    2604                            .dwcfi  same_value, 91
    2605                            .dwcfi  same_value, 92
    2606                            .dwcfi  same_value, 93
    2607                            .dwcfi  same_value, 94
    2608                            .dwcfi  same_value, 95
    2609                            .dwendentry
    2610                            .dwendtag $C$DW$CU
    2611                    

--------------------------
Thumb2 Statistics
--------------------------
Number of Thumb2 ins converted to Thumb = 0 (0%)
Number of Thumb ins in input = 369 (77%)
Number of Thumb2 ins encoded as Thumb2 = 106 (100%)
Number of Thumb2 ins converted to 2 OPND Thumb = 105


No Assembly Errors, No Assembly Warnings
